(dp0
S'Printed circuit board (PCB)'
p1
(lp2
S'Mintronics: Menta'
p3
asS'Battery holder, 6xAA'
p4
(lp5
S'Charlie&#039;s RFID Teddy Bear'
p6
asS'Wooden dowel'
p7
(lp8
S'Simple Bass Amp Stand'
p9
asS'RF Link Receiver'
p10
(lp11
S'Arduino Mail Notifier'
p12
asS'MAKE Spazzi Electronics Bundle'
p13
(lp14
S'Spazzi: A Solenoid Powered Dancebot'
p15
asS'Volt-ohmmeter'
p16
(lp17
S'Wind Your Own Guitar Pickups'
p18
asS'Fluorescent light fixture'
p19
(lp20
S'Garduino Geek Gardening'
p21
asS'Copper pins'
p22
(lp23
S'A Simple Trip Wire'
p24
asS'IC socket'
p25
(lp26
S'MoofTronic Mini Synth'
p27
aS'The $5 Cracker Box Amp'
p28
aS'DC Boarduino (Arduino Clone) Kit'
p29
asS'R/C Car Battery Pack and Connector Repair Kit'
p30
(lp31
S'Lanterns-a-Go-Go'
p32
asS'Female connector headers'
p33
(lp34
S'Solar Xylophone'
p35
asS'DB-9 female connector w/solder cup'
p36
(lp37
S'SIM Card Reader/Writer Kit'
p38
asS'Photoresistor'
p39
(lp40
g12
aS'Light Theremin'
p41
aS'555 Timer Ball Whacker'
p42
asS'Gearbox'
p43
(lp44
S'VCR Cat Feeder'
p45
asS'PVC pipe'
p46
(lp47
S'Electronic Drum Kit'
p48
asS'Computer with an Ethernet port'
p49
(lp50
S'Create a P2P Network'
p51
asS'Solder Flux'
p52
(lp53
S'Small Word Clock'
p54
asS'Solder, lead-free'
p55
(lp56
S'Floating Glow Display'
p57
aS'USB Webcam Microscope'
p58
aS'Solar USB Charger'
p59
aS'Wearable Light Organ'
p60
asS'Ultrasonic distance sensor'
p61
(lp62
S'Yellow Drum Machine'
p63
asS'Sugar'
p64
(lp65
S'Sculpting Circuits'
p66
asS'Shrub sprinkler head'
p67
(lp68
S'Radar Speed Detector'
p69
asS'NPN transistor, EBC pinout'
p70
(lp71
g38
asS'Earbud cushions'
p72
(lp73
S'The Stealth Mic'
p74
asS'wooden board,'
p75
(lp76
S'LED Jellies Lamp Stand'
p77
asS'ZilchLab EconoWave crossover PCBs'
p78
(lp79
S'Econowave Speakers'
p80
asS'Tape'
p81
(lp82
S'Rock Star Headphones'
p83
aS'LED Night-Light Cube'
p84
aS'Flash Memory Hard Disc'
p85
aS'Stationary Drumcycle'
p86
aS'Guitar Strap Gamepad'
p87
aS'The Mind Surfer'
p88
aS'Easy Home Control Via Web Chat'
p89
aS'PowerFake Knob Controller'
p90
aS'Robot-Headed Valentine Box'
p91
aS'LED Throwies'
p92
aS'Electronic Origami'
p93
aS'Anti-Robber Pressure Pad'
p94
ag18
aS'Styrofoam Plate Speaker'
p95
aS'Arduino Powered Brain Machine'
p96
asS'XBee Shield'
p97
(lp98
S'Networked On Air Light'
p99
asS'copper brackets'
p100
(lp101
S'Mini Gun Madness'
p102
asS'Crystal earphone'
p103
(lp104
S'Simple Laser Communicator'
p105
asS'Power supply, 5V DC, regulated, 200mA minimum'
p106
(lp107
S'Teleclaw: Remote Robot Gripper'
p108
asS'Plush doll'
p109
(lp110
S'Mini Electric Chair'
p111
asS'Op-amp, LM741CN/N'
p112
(lp113
S'Eyeboard Electrooculography (EOG) System'
p114
asS'Multistrand hookup wire'
p115
(lp116
S'Micro FM Transmitter'
p117
asS'28-pin socket'
p118
(lp119
S'Ice Tube Clock Kit'
p120
asS'Capacitor, 1.0&micro;F non-polarized electrolytic (capacitor code 105)'
p121
(lp122
g60
asS'Arduino Uno microcontroller'
p123
(lp124
S'Secret-Knock Gumball Machine'
p125
asS'Capacitor, ceramic'
p126
(lp127
g3
asS'Mini trim capacitor'
p128
(lp129
g117
asS'Wire'
p130
(lp131
g84
aS'LED Hula Hoop'
p132
aS'Magic Mirror Costume'
p133
ag35
aS'The Bobbinator'
p134
aS'The Illuminometer Pod'
p135
aS'TV-B-Gone Hat'
p136
aS'The Trip-Cam'
p137
aS'Solar Joule Bracelet'
p138
aS'PS/2/You LED Sign'
p139
aS'Make Lightning'
p140
ag94
aS'Small Amp'
p141
ag18
ag105
ag111
aS'Tacit: A Haptic Wrist Rangefinder'
p142
aS'Parallax Ping))) Theremin'
p143
aS'My Robot, Makey'
p144
aS'Lawnbot400'
p145
aS'Kitty Twitty Cat Toy'
p146
ag21
ag6
asS'Wing nuts'
p147
(lp148
g111
asS'Screw terminals'
p149
(lp150
S'Dummy Camera'
p151
asS'Nylon bolt'
p152
(lp153
S'Chladni  Plate'
p154
asS'Poster board'
p155
(lp156
S'The BeatBearing Tangible Rhythm Sequencer'
p157
asS'Plumbing end caps'
p158
(lp159
S'3D Scanning System'
p160
asS'LCD display'
p161
(lp162
S'The Electronic Nag'
p163
asS'Vinyl tubing'
p164
(lp165
g48
asS'&frac12;&quot; square hardwood stock at least 1&frac12;&quot; long'
p166
(lp167
S'Cigar Box Guitar'
p168
asS'10K Resistor'
p169
(lp170
g12
aS'The Arduino Powered Laser Security System'
p171
ag29
aS'Circle-A-Sketch'
p172
aS'Arduino Data-Logging Shield Kit'
p173
asS'20pF ceramic capacitor'
p174
(lp175
g120
asS'Panel mount headphone jack'
p176
(lp177
S'Hacking the Brain Machine'
p178
asS'Lighter'
p179
(lp180
g74
aS'Pillow Music'
p181
asS'Stranded Wire'
p182
(lp183
S'Space Invaders Tote'
p184
aS'Add Volume, Jack'
p185
asS'LED Matrix Kit'
p186
(lp187
S'Circuit Skills: LED Matrix'
p188
asS'1/4W 5% 1Meg resistor'
p189
(lp190
S'The BeatBox'
p191
ag38
asS'Battery Snap Connectors'
p192
(lp193
S'Alarm Bag'
p194
asS'Devices'
p195
(lp196
g89
asS'Small push button switches'
p197
(lp198
S'The NES MPS - A Stage-Worthy LSDJ/Nanoloop Workstation'
p199
asS'Switch, SPST pushbutton, normally open (N.O.), panel-mount'
p200
(lp201
S'Water Leak Detector'
p202
asS'2N3906 PNP transistor'
p203
(lp204
S'DIY $10 Drawdio'
p205
asS'Fret wire'
p206
(lp207
S'Cigar Box Guitar'
p208
asS'Schottky signal diode'
p209
(lp210
S'IC Wall Outlet Adapter'
p211
ag138
asS'MudWatt MFC Kit'
p212
(lp213
S'Bacteria Battery'
p214
asS'2N2222 TRANSISTOR'
p215
(lp216
S'Laser Harp (Frameless - Open Source)'
p217
asS'Battery'
p218
(lp219
g117
aS'Arduino Blinking Bike Patch'
p220
aS'Annie&#039;s Blinking El Wire Eye'
p221
ag27
ag87
aS'Elastic String Bass'
p222
aS'Build the Gakken Mini Guitar'
p223
aS'Build a POSC Synthesizer'
p224
aS'Simple Motor'
p225
aS'Gyrocar'
p226
ag136
ag137
ag151
ag28
ag142
ag144
asS'Watch Crystal'
p227
(lp228
g173
asS'LCD117 Breakout Board with LCD'
p229
(lp230
S'Piroulette: A Machine That Predicts Your Last Words'
p231
asS'(1) 5MM Red LED high brightness Mouser 696-SSL-LX5093XRC/4 http://www.mouser.com  (1) 5MM Green LED high brightness Mouser 696-SSL-LX5093UEGC  (1) 5MM Blue LED high brightness Mouser 696-SSL-LX5093USBC (20 inches) solid core hook up wire 24 gauge Mouser, Radio Shack or other  (2) 20 ohm 1/4 W resistor Mouser 66-RC07GF200J  (1) 100 ohm 1/4 W resistor Mouser 588-OD101JE  (3) 100K ohm 1/4 W resistor Mouser 291-100K-RC  (1) Perf Board Radio Shack 276-148  (1) Strip Board 1&quot; by 5/8&quot; Mouser 854-ST3U  (3) PICAXE 08M IC http://www.phanderson.com/picaxe/  (3) 8 Pin DIP IC Socket Radio Shack 276-1995 or other  (1) Charger USB/AC for MP3 Players - White http://www.amazon.com/gp/product/B000A2BLEC/ref=ox_ya_os_product'
p232
(lp233
S'Trippy RGB Color-Mixing Nightlight'
p234
asS'Batting'
p235
(lp236
S'Emoting Puppets'
p237
asS'Sealer'
p238
(lp239
g146
asS'20 lb. fishing line or heavy duty thread'
p240
(lp241
S'DIY Lanyard for USB Flash Drives'
p242
asS'Machine screws, about 1&quot;, with matching washers and nuts'
p243
(lp244
g202
asS'handful of 2n3906 transistors (exact number varies depending on primary coil)'
p245
(lp246
S'Upgraded Indestructable LED Lanterns'
p247
asS'1/4W 56k ohm resistor'
p248
(lp249
g114
aS'Audio Spectrum Analyzer'
p250
asS'Microphone condenser element'
p251
(lp252
g60
asS'Sparkfun 16x2 LCD'
p253
(lp254
S'Belvedere - A Butler Robot'
p255
asS'White 1210 SMD LED'
p256
(lp257
g54
asS'Resistors, 1&frasl;4W: 220&Omega; , 10k&Omega;, 100k&Omega;, 1M&Omega;'
p258
(lp259
S'The Truth Meter'
p260
asS'LED, Blue'
p261
(lp262
S'Arduino LED Fuel Gauge'
p263
asS'Lead-free solder'
p264
(lp265
S'LED Tank Top'
p266
asS'Aluminum flashing'
p267
(lp268
S'Wind Lantern'
p269
asS'Small Mirror Piece'
p270
(lp271
g217
asS'headphone jack'
p272
(lp273
g143
asS'Amplifier, mini, portable'
p274
(lp275
g105
asS'Coin cell battery holder'
p276
(lp277
g57
aS'Soft-Circuit LED Bracelet'
p278
asS'Wood Finish'
p279
(lp280
S'USB Key Makeovers'
p281
asS'1/2&quot; Heat-shrink tubing, 3/4&quot; long -or- a small piece of duct tape.'
p282
(lp283
g242
asS'Dual motor driver board'
p284
(lp285
g144
asS'Servo (generic)'
p286
(lp287
S'Halloween Skeleton'
p288
aS'Hacking the Wii MotionPlus to Talk to the Arduino'
p289
asS'Jumper wires'
p290
(lp291
g269
aS'Reaction Timer'
p292
ag15
aS'PIR Sensor Arduino Alarm'
p293
ag144
ag172
asS'Rubber balloons'
p294
(lp295
S'The Flame Tube'
p296
asS'High intensity LEDs'
p297
(lp298
g102
asS'1/4W 2.2k ohm resistor'
p299
(lp300
g247
asS'Sequencer'
p301
(lp302
g221
asS'Breakaway male headers'
p303
(lp304
g269
asS'Helmet'
p305
(lp306
S'Light-Up EL Wire Costume'
p307
asS'Instrument amp, INA118P'
p308
(lp309
g114
asS'Copper or brass foil, 36 gauge (0.005&quot;) or thinner, 1&quot; wide, 6&quot; long'
p310
(lp311
g260
asS'optional: electrical tape'
p312
(lp313
S'Wireless Altoids Tin Mouse (aka Minty Mouse)'
p314
asS'Blank circuit boards, dual mini and medium'
p315
(lp316
S'Laser Harp'
p317
asS'DC power connector 2.1mm ID coaxial J1'
p318
(lp319
S'LED Light Brick'
p320
asS'Resistor'
p321
(lp322
S'Tweet-A-Watt Power Monitor'
p323
aS'Musical Drawdio Puppet'
p324
ag132
aS'Sounds from Old CFLs'
p325
aS'Random Music Box'
p326
ag27
ag41
ag48
ag222
ag42
ag80
aS'Whack-a-Mole Game'
p327
ag137
ag138
ag151
aS'Dish-O-Tron 6000'
p328
ag160
ag28
aS'Lunchbox Laser Shows'
p329
ag163
ag144
ag3
ag145
ag146
ag21
asS'mylar capacitor (any value above 0.005)'
p330
(lp331
g247
asS'Header pins, male, snap-off'
p332
(lp333
g63
aS'Arduino Temp / Humidity Monitor with Web and SNMP'
p334
asS'Xylophone'
p335
(lp336
g35
asS'Arduino Mega'
p337
(lp338
S'Arduino Mega PIR Alarm'
p339
asS'2200uH power inductor, &gt;0.2A current capability'
p340
(lp341
g120
asS'Jumper Wire'
p342
(lp343
g217
aS'Using the MakerShield Button'
p344
ag163
ag334
aS'Arduino 101: Potentiometers and Servos'
p345
asS'Small perfboard'
p346
(lp347
S'Gun-Operated Alarm Clock'
p348
asS'XKitz touch sensor boards'
p349
(lp350
S'Audio-Enhanced Touch Sensors to Help the Visually Impaired'
p351
asS'Drumsticks'
p352
(lp353
S'Arduino Drum Pad &amp; Game'
p354
asS'sturdy wooden or metal pole'
p355
(lp356
g77
asS'Brass tube'
p357
(lp358
g125
asS'Wire, solid copper, insulated, 18&ndash;20 gauge'
p359
(lp360
g202
asS'Strip of Copper'
p361
(lp362
g94
asS'Switch enclosure'
p363
(lp364
g224
asS'100&Omega; resistors &frac14; watt 5 carbon film'
p365
(lp366
g320
asS'A4-size wood'
p367
(lp368
g9
asS'Project box, small'
p369
(lp370
g202
asS'120 VAC to 24 VDC transformer (mine is part number LP-575)'
p371
(lp372
S'0 - 24 Volt, 2 Amp Bench Top Power Supply'
p373
asS'Kitchen sponges, pop-up, 3&quot;X4&quot;'
p374
(lp375
g202
asS'Pop rivets'
p376
(lp377
g144
asS'Solar cell, encapsulated module'
p378
(lp379
g59
asS'Unwanted CD or DVD'
p380
(lp381
S'The Autophenakistoscope'
p382
asS'Switching audio jack, normally closed (NC)'
p383
(lp384
g185
asS'Power switch'
p385
(lp386
g139
asS'Black paint'
p387
(lp388
g317
asS'Muriatic Acid / Hydrochloric Acid (HCL)'
p389
(lp390
S'PCB Etching Using Toner Transfer Method'
p391
asS'NPN transistors, 15 pack'
p392
(lp393
S'Game Show Buttons'
p394
asS'555 timer (cmos or normal)'
p395
(lp396
g247
asS'Serpac A-21 enclosure, black'
p397
(lp398
S'Pixelmusic 3000'
p399
asS'Heatsink TO-220'
p400
(lp401
g373
asS'Resistor, 220&Omega;'
p402
(lp403
g105
asS'A messenger-style shoulder bag'
p404
(lp405
g194
asS'LM324 OPAMP'
p406
(lp407
g250
asS'Particleboard screws'
p408
(lp409
S'Particleboard Amp Enhancer'
p410
asS'Extension cable, USB A/A'
p411
(lp412
g59
asS'Fluorescent tube grow light'
p413
(lp414
g21
asS'LCD screen'
p415
(lp416
g143
asS'Lightbulb'
p417
(lp418
g99
asS'Cord to be coiled'
p419
(lp420
S'Cord Curling'
p421
asS'Push mower'
p422
(lp423
g145
asS'DC electric motor'
p424
(lp425
g226
asS'Nail'
p426
(lp427
g163
asS'Batteries'
p428
(lp429
g42
aS'Solar TV Remote'
p430
ag327
ag66
ag139
ag92
ag194
ag105
ag145
asS'Mirror'
p431
(lp432
g329
asS'Computer keyboard with PS/2 connection'
p433
(lp434
g139
asS'Chair'
p435
(lp436
g111
asS'Capacitor(s)'
p437
(lp438
S'Infinity Light'
p439
asS'Terminal strip'
p440
(lp441
g382
asS'Mono phone jack'
p442
(lp443
g28
asS'Resistors, 1&frasl;4W: 3.3M&Omega;'
p444
(lp445
g260
asS'Rubber bands'
p446
(lp447
g88
asS'Electric tape'
p448
(lp449
g348
asS'Resistor networks'
p450
(lp451
g145
asS'FTDI cable'
p452
(lp453
g323
asS'Short jumper wires (like the conductors from solid core UTP cable)'
p454
(lp455
S'Luminch One'
p456
asS'1/2&quot; long x 1/8&quot; wide nuts and bolts'
p457
(lp458
g373
asS'14awg-20awg hook-up wire'
p459
(lp460
S'Simple AC to DC Power Supply'
p461
asS'Solid-core insulated wire'
p462
(lp463
g222
asS'Mono jack socket'
p464
(lp465
g160
asS'Onion'
p466
(lp467
S'Charge an iPod with an Onion'
p468
asS'Power Supply, 5V DC, regulated 1A minimum'
p469
(lp470
g217
ag54
asS'Junk CD/DVD'
p471
(lp472
g354
asS'Servomotor'
p473
(lp474
g125
ag144
asS'USB Numberpad'
p475
(lp476
g133
asS'Solderless Breadboard Jumper Wire Kit'
p477
(lp478
g137
asS'Hex nut'
p479
(lp480
g87
asS'Battery holder, 3 x AAA'
p481
(lp482
g105
asS'Alligator test/jumper cable set'
p483
(lp484
g171
asS'1/4&quot; hardwood dowel (4&quot; long)'
p485
(lp486
S'Treasure Finder'
p487
asS'6 pin header'
p488
(lp489
g38
asS'Double sided tape'
p490
(lp491
S'HAB APRS Tracker'
p492
asS'Lexan plastic heatshield'
p493
(lp494
S'Urban Guerrilla Movie House'
p495
asS'Break Away Headers - Straight'
p496
(lp497
S'XBee Pulse I/O Breadboard or Perfboard Assembly Instructions'
p498
asS'Resistors, 1k&Omega;'
p499
(lp500
g143
asS'Radians custom fitted earplug kit'
p501
(lp502
S'Custom Fit Earbuds'
p503
asS'Flange ball bearing'
p504
(lp505
g160
asS'Photo frame hook'
p506
(lp507
g24
asS'Ribbon cable'
p508
(lp509
g323
ag399
ag157
asS'Photopaper developer'
p510
(lp511
S'Technique:Laptopogram'
p512
asS'7812 Voltage Regulator'
p513
(lp514
S'Cheap Soldering Fan'
p515
asS'2.2K Resistor'
p516
(lp517
g173
asS'Shield stacking headers for Arduino'
p518
(lp519
g163
asS'Ethernet cable'
p520
(lp521
S'Circuit-Bend Your Casio SK Keyboard'
p522
ag146
asS'Thin plastic or laminated card'
p523
(lp524
g134
asS'Computers'
p525
(lp526
g89
asS'Buzzer or Small Speaker'
p527
(lp528
S'Yobot: Arduino Yogurt Maker'
p529
asS'Supercap Racer Kit'
p530
(lp531
S'Supercap Racer Kit'
p532
asS'Gakken Mini Electric Guitar kit'
p533
(lp534
g223
asS'10K Potentiometer'
p535
(lp536
S'Arduino LCD Birthday Card'
p537
asS'Mini Drill kit'
p538
(lp539
S'Circuit Skills: Circuit Board Etching'
p540
asS'Hookup wire'
p541
(lp542
g157
ag41
aS'One-Ton Linear Servo'
p543
ag327
ag329
ag382
asS'Crossover LAN Cable'
p544
(lp545
g51
asS'Button snap-connectors'
p546
(lp547
S'Air Guitar Hero'
p548
asS'Header, male'
p549
(lp550
g3
asS'Fasteners'
p551
(lp552
S'Thumb Piano'
p553
asS'MP3 Player'
p554
(lp555
S'MP3 Player as Flash Drive'
p556
asS'Plastic container'
p557
(lp558
g391
asS'Project enclosure'
p559
(lp560
g48
ag90
ag69
ag160
ag163
asS'USB hub'
p561
(lp562
S'USB Flash Memory Drive'
p563
ag85
aS'Headgear MIDI Control'
p564
asS'8 &quot;AA&quot; Battery holder'
p565
(lp566
g194
asS'XBEE module'
p567
(lp568
g323
asS'Fender washer'
p569
(lp570
g111
asS'AVR programmer'
p571
(lp572
g266
asS'Beeswax'
p573
(lp574
g18
asS'1/4&quot; plywood'
p575
(lp576
g487
asS'SMA bulkhead connector'
p577
(lp578
g492
asS'1N4001 diode'
p579
(lp580
g29
asS'misc mounting hardware'
p581
(lp582
S'Soldering Fume Extractor'
p583
asS'Wire, insulated, 18-22 gauge stranded, multiple colors'
p584
(lp585
g202
asS'Sew-on snaps'
p586
(lp587
S'TV-B-Gone Hoodie'
p588
ag278
ag324
asS'EL Inverter with connectors'
p589
(lp590
S'Tron Bag with EL Wire'
p591
asS'7805 (TO-220 package) or 78L05 (TO-92)  5V regulator'
p592
(lp593
g38
asS'Stranded Core Wire'
p594
(lp595
g205
asS'3-volt battery and holder'
p596
(lp597
g91
asS'LED, 5mm, blue'
p598
(lp599
S'The Luna Mod Looper'
p600
asS'Learn-to-Solder Skill Badge Kit'
p601
(lp602
S'Make: Electronic Skill Badge'
p603
asS'90-second epoxy'
p604
(lp605
g168
asS'Heat Shrink tubing'
p606
(lp607
g323
aS'Simple, Cheap, Multi-Channel, Sound-Reactive EL Wire'
p608
asS'humidity sensor'
p609
(lp610
g334
asS'Breadboard Wire Kit'
p611
(lp612
g394
asS'Power supply'
p613
(lp614
g326
aS'Drumbots'
p615
ag292
ag160
ag111
ag329
ag163
ag382
ag15
ag146
asS'Female connector header'
p616
(lp617
S'Get Started with Arduino Clones'
p618
asS'switch bundle'
p619
(lp620
S'Arduino Survival Tin'
p621
asS'ProtoShield kit'
p622
(lp623
g144
asS'Silicone RT V Mold- Making System 1lb silicone and 0.1lb catalyst'
p624
(lp625
g320
asS'U-bolts'
p626
(lp627
S'Solar Car Subwoofer'
p628
asS'Metal flat or angle stock'
p629
(lp630
g329
asS'invisible thread'
p631
(lp632
g591
asS'Water'
p633
(lp634
g421
ag66
asS'Emery paper'
p635
(lp636
g18
asS'Insulating tape'
p637
(lp638
g563
asS'Make PS/2/You Kit'
p639
(lp640
g139
asS'Charge controller'
p641
(lp642
g628
asS'Proximity card'
p643
(lp644
S'Proximity Swipe Card Repair'
p645
asS'Lumber'
p646
(lp647
g208
ag628
asS'5-gallon bucket'
p648
(lp649
g21
asS'DIP sockets'
p650
(lp651
g327
asS'Thinner / Acetone'
p652
(lp653
g391
asS'(optional) circuit board'
p654
(lp655
g205
asS'Small Breadboard'
p656
(lp657
g143
asS'Maxbotix Maxsonar EZ1 Ultrasonic Sensors'
p658
(lp659
g255
asS'Hose clamps (2)'
p660
(lp661
g522
asS'Super TV-B-Gone Kit'
p662
(lp663
g588
asS'matching transformer'
p664
(lp665
S'Over-the-Air TV Antenna'
p666
asS'Capacitor 0.22&mu;F'
p667
(lp668
g41
asS'Solderless Breadboard Mouser, Radio Shack or other'
p669
(lp670
g498
asS'Hardboard panel'
p671
(lp672
g382
asS"Headphones, 1/8&quot; plug, mono or stereo (optional; if you're using the brain booster)"
p673
(lp674
g96
asS'Mirror Finish window tint'
p675
(lp676
g133
asS'Photopaper'
p677
(lp678
g512
asS'Capacitor, 0.1&mu;F'
p679
(lp680
g487
asS'Zoom MRT-3B Micro RhythmTrak drum machine'
p681
(lp682
g48
asS'Clear plastic light globe'
p683
(lp684
g125
asS'Capacitor, 0.1 &micro;F ceramic (100 nF, capacitor code 104)'
p685
(lp686
g60
asS'resistors (value depends on LEDs used)'
p687
(lp688
g54
asS'Wire, hookup, 22 gauge stranded'
p689
(lp690
g487
ag105
ag96
asS'LM556 IC'
p691
(lp692
g327
asS'Polystyrene ball'
p693
(lp694
g42
asS'Computer fan, 5-8 inches square'
p695
(lp696
g515
asS'Picaxe serial programming cable'
p697
(lp698
g27
asS'Distilled water'
p699
(lp700
g66
asS'Toggle switch'
p701
(lp702
g222
ag28
aS'Plush Irradiated Sirloin'
p703
asS'USB flash drive'
p704
(lp705
g563
ag281
asS'Bike helmet'
p706
(lp707
g88
asS'LED, Red'
p708
(lp709
S'Arduino Morse Code Flasher'
p710
ag317
ag327
ag260
ag250
ag263
aS'Arduino 101: Blink an LED'
p711
asS'8 Ohm mini speaker'
p712
(lp713
g205
ag143
ag339
asS'Cheap Picture Frame'
p714
(lp715
g133
asS'Pipe strapping'
p716
(lp717
g615
asS'360&deg; LEDs'
p718
(lp719
g703
asS'Spray adhesive'
p720
(lp721
g327
asS'4WD Arduino Compatible Mobile Platform'
p722
(lp723
S'Build your own Arduino-Controlled Robot!'
p724
asS'ULN2003'
p725
(lp726
g217
asS'Gaffer&rsquo;s tape'
p727
(lp728
S'Parabolic Microphone'
p729
asS'Automotive relay'
p730
(lp731
g145
asS'Aluminum or other tubing, &frac14;&quot; (6.4mm) diameter &times; 4&quot; (10cm)'
p732
(lp733
g63
asS'HMC6352 compass module from Sparkfun'
p734
(lp735
g255
asS'9V battery clip'
p736
(lp737
S'The Micro-Synth'
p738
ag38
asS'Header pins, female, snap-off'
p739
(lp740
g334
asS'Foam pipe insulation'
p741
(lp742
g48
asS'Battery snap connector'
p743
(lp744
g221
ag144
asS'AA Battery'
p745
(lp746
g24
asS'Mallets'
p747
(lp748
g35
asS'Decade Counter chips'
p749
(lp750
g292
asS'Robie Sr.'
p751
(lp752
S'Robot Resurrection : A New Life for an Old Friend, Robie Sr., Part One'
p753
asS'PC cooling fan'
p754
(lp755
g145
asS'Op-amp chip'
p756
(lp757
g326
ag222
asS'Weather stripping'
p758
(lp759
g410
asS'Lag screws'
p760
(lp761
g48
asS'moldable casein'
p762
(lp763
g77
asS'EMG electrodes, silver-silver chloride, bipolar (1 box)'
p764
(lp765
g548
asS'4401, 2222, or 3904 transistor'
p766
(lp767
g247
asS'Trimpots'
p768
(lp769
g543
asS'Wood boards'
p770
(lp771
g600
asS'Icetube Clock kit (includes all parts needed)'
p772
(lp773
g120
asS'misc resistors'
p774
(lp775
S'Use an Arduino Clone to Control a TV'
p776
ag618
ag263
aS'Drive a 7-Segment LED with an Arduino'
p777
asS'MAX7219 LED Controller'
p778
(lp779
g54
asS'Solenoids'
p780
(lp781
g615
ag15
asS'laptop'
p782
(lp783
g133
ag512
asS'Nuts'
p784
(lp785
g163
ag125
asS'9 volt battery'
p786
(lp787
g77
asS'Green and Red LED'
p788
(lp789
g29
asS'Digital picture frame keychains'
p790
(lp791
S'Lady GaGa &quot;Video&quot; Glasses'
p792
asS'Bias tape'
p793
(lp794
g142
asS'Horn driver'
p795
(lp796
g80
asS'uninsulated copper wire'
p797
(lp798
g77
asS'Scrap of plywood'
p799
(lp800
g145
asS'Flanged sleeve bearing'
p801
(lp802
g269
asS'.47uF / 50v capacitor (electrolytic)'
p803
(lp804
g250
asS'Polyester Capacitor 0.1&micro;F'
p805
(lp806
g327
asS'Tines'
p807
(lp808
g553
asS'micro motor'
p809
(lp810
g621
asS'Wii Motion Plus'
p811
(lp812
g289
asS'Relays'
p813
(lp814
g543
asS'Small power connector (female)'
p815
(lp816
g738
asS'Wall anchor'
p817
(lp818
g146
asS'Electrical tape or heat shrink tubing'
p819
(lp820
g139
asS'Picaxe-08M 8-pin microcontroller'
p821
(lp822
g27
asS'10k potentiometers'
p823
(lp824
S'Build a projBox Controller'
p825
asS'HELLO! My Name Is LED Nametag Kit'
p826
(lp827
S'LED &quot;Hello! My Name Is&quot; Name Tag Kit'
p828
asS'Arduino grblShield'
p829
(lp830
S'Build a Wirebot'
p831
asS'Ping rangefinder'
p832
(lp833
g144
asS'Jewelry wrapping wire'
p834
(lp835
g194
asS'Ball bearing'
p836
(lp837
S'Ball-in-Cage Alarm Switch'
p838
asS'Small quantity of conductive thread'
p839
(lp840
g588
asS'Magnet wire, 26 gauge'
p841
(lp842
g487
asS'Transistor, NPN, 2N3904'
p843
(lp844
g487
asS'Food coloring'
p845
(lp846
g66
asS'Tracing paper'
p847
(lp848
S'Simple Scanner Camera'
p849
aS'Deluxe Scanner Camera'
p850
asS'LM386 audio op-amp'
p851
(lp852
g250
ag141
asS'Bolts'
p853
(lp854
g48
ag69
ag160
ag145
asS'Peel &amp; Stick Vinyl Letters'
p855
(lp856
g99
asS'9V DC power supply'
p857
(lp858
g125
asS'Scrap wood'
p859
(lp860
g18
asS'16v ac power source'
p861
(lp862
S'Wireless Power Transfer'
p863
asS'Jumper'
p864
(lp865
g3
ag29
asS'Kitchen soap'
p866
(lp867
g348
asS'Extension cord or power cable'
p868
(lp869
g529
asS'Scrap lead clippings'
p870
(lp871
g738
asS'Foamcore board'
p872
(lp873
g221
ag849
ag850
asS'Gatorade or Powerade'
p874
(lp875
g468
asS'PS/2 port'
p876
(lp877
g139
asS'Seeds'
p878
(lp879
g21
asS'Submersible water pump'
p880
(lp881
g21
asS'9 volt battery snap connector'
p882
(lp883
g618
ag141
asS'Neoprene'
p884
(lp885
g83
ag142
asS'Vegetable oil'
p886
(lp887
g66
asS'PING))) Ultrasonic Sensor'
p888
(lp889
g724
ag143
asS'CMOS Hex inverter'
p890
(lp891
g38
asS'Gearmotor mount'
p892
(lp893
g144
asS'Wood and screws 1&frasl;2&quot; fiberboard'
p894
(lp895
g317
asS'ATMega328 P-PU'
p896
(lp897
g114
asS'Powder'
p898
(lp899
g154
asS'1/4W 4.7k ohm resistor'
p900
(lp901
g250
asS'Business cards'
p902
(lp903
g95
asS'Liquid stitch'
p904
(lp905
g266
asS'Refoaming kit'
p906
(lp907
g80
asS'self tapping screws'
p908
(lp909
S'&quot;Chopsticks&quot; the Spider Robot'
p910
asS'Halloween mask'
p911
(lp912
g288
asS'Lamp cord'
p913
(lp914
g99
asS'Magnet wire'
p915
(lp916
g18
asS'Nuts, 4-40 hex (6)'
p917
(lp918
g108
asS'Crystal, 14.7456 MHz'
p919
(lp920
g114
asS'Power Supply, 15V DC, regulated 5A minimum'
p921
(lp922
g217
asS'Desk lamp'
p923
(lp924
g42
asS'Wii Chuck Adapter'
p925
(lp926
g289
asS'Bond paper'
p927
(lp928
g95
asS'1/8&quot; wood or MDF'
p929
(lp930
g373
asS'Fuse'
p931
(lp932
g628
ag145
asS'Red LED'
p933
(lp934
g399
asS'Flat wooden sticks'
p935
(lp936
g63
asS'Arduino Uno(or other arduino board)'
p937
(lp938
g710
asS'Stereo jack'
p939
(lp940
g27
ag250
asS'Compass'
p941
(lp942
g18
asS'Mini Fume Extractor Parts Bundle'
p943
(lp944
S'Mini Fume Extractor'
p945
asS'Photopaper fixer'
p946
(lp947
g512
asS'Butt splice crimp connectors'
p948
(lp949
g32
asS'Mirrors'
p950
(lp951
g329
asS'Analog AM/FM receiver'
p952
(lp953
S'Aircraft Band Receiver'
p954
asS"transistor bundle,MOSFET's as well"
p955
(lp956
g621
asS'Thumbtacks'
p957
(lp958
g125
asS'Cabinet hinge'
p959
(lp960
g208
asS'Potentiometer'
p961
(lp962
g325
ag35
ag326
ag222
ag543
ag135
ag185
ag292
ag28
ag329
ag382
ag125
asS'0.01uf capacitor (103)'
p963
(lp964
g247
asS'Nook Tablet'
p965
(lp966
S'Nook Tablet Android Hack'
p967
asS'Barbed pipe fitting'
p968
(lp969
g132
asS'Metal rod'
p970
(lp971
g90
asS'Chicken head knob'
p972
(lp973
g28
asS'Piezoelectric buzzer'
p974
(lp975
g202
asS'Wood-grain contact paper'
p976
(lp977
g399
asS'2mm 10pin XBee Socket'
p978
(lp979
g498
asS'Velcro'
p980
(lp981
g99
aS'iPhone Keyboard Stand'
p982
ag495
ag181
ag6
asS'Arduino ProtoShield'
p983
(lp984
g564
asS'Resistor, 500-piece assorment, 1/4 Watt'
p985
(lp986
g600
asS'Potentiometer, 100k&Omega;'
p987
(lp988
g317
ag172
asS'USB-Serial adapter'
p989
(lp990
g114
asS'White Gloves'
p991
(lp992
g217
asS'Slide switch'
p993
(lp994
g399
asS'Cerebot MX7ck board, OLED Screen and USB cable to computer using UART'
p995
(lp996
S'Using Arduino to Create an Online Reactor Reactivity Meter'
p997
asS'USB A-B cable'
p998
(lp999
g146
asS'Guitar tuning pegs'
p1000
(lp1001
g48
asS'Battery clip 9V'
p1002
(lp1003
g600
asS'LED holder/diffuser lens'
p1004
(lp1005
g382
asS'Hot Wheels Radar Gun'
p1006
(lp1007
g69
asS'Guitar Hero controllers'
p1008
(lp1009
S'21st-Century Keytars'
p1010
asS'Green Laser Pointer'
p1011
(lp1012
g217
asS'Circuit board'
p1013
(lp1014
g21
ag29
asS'Leather pet collar'
p1015
(lp1016
g111
asS'12&quot; length of 14 solid wire'
p1017
(lp1018
g320
asS'Shaft collars'
p1019
(lp1020
g269
asS'Files for MP3 Player'
p1021
(lp1022
g556
asS'LED, Green'
p1023
(lp1024
g327
ag250
asS'Battery holder'
p1025
(lp1026
g266
ag237
aS'Electronic Embroidery'
p1027
ag221
ag139
ag151
ag345
asS'Servo'
p1028
(lp1029
g326
ag543
ag255
ag345
asS'Caster wheels'
p1030
(lp1031
g145
asS'SD memory card'
p1032
(lp1033
g6
asS'Bolt'
p1034
(lp1035
g86
ag87
ag125
asS'9V battery'
p1036
(lp1037
g96
asS'Socket'
p1038
(lp1039
g48
ag160
asS'3M TL20 temp. logger USB cable'
p1040
(lp1041
S'Temperature Logger Modification'
p1042
asS'Luxeon Rebel High Power LED Breakout - Warm White'
p1043
(lp1044
g456
asS'Measuring tape'
p1045
(lp1046
g132
ag35
asS'Audio plug'
p1047
(lp1048
g95
asS'.047uF 100v capacitor'
p1049
(lp1050
g141
asS'Adjustable voltage regulator'
p1051
(lp1052
g317
asS'Diode'
p1053
(lp1054
g323
ag430
ag439
ag160
ag329
ag145
ag21
asS'IC ATMEGA328P'
p1055
(lp1056
g29
asS'Machie screws'
p1057
(lp1058
g163
asS'Pin socket'
p1059
(lp1060
g151
asS'PCB'
p1061
(lp1062
g117
aS'3x3x3 LED Cube Arduino Shield'
p1063
ag173
asS'Medium Wire'
p1064
(lp1065
g1063
asS'LM324 quad op-amp chips'
p1066
(lp1067
g317
asS'Header'
p1068
(lp1069
g328
asS'Illuminated microscope'
p1070
(lp1071
g58
asS'Arduino programming cable.'
p1072
(lp1073
g621
asS'Subwoofer amplifier and speaker'
p1074
(lp1075
g628
asS'Break Away Male Headers - Right Angle'
p1076
(lp1077
g456
asS'solder-type RCA plug'
p1078
(lp1079
g776
asS'Micro Aileron System'
p1080
(lp1081
g144
asS'6-Pin ICSP Header'
p1082
(lp1083
g29
asS'Lithium 3V battery'
p1084
(lp1085
g237
asS'220uF/35V capacitor'
p1086
(lp1087
g141
asS'Threaded standoffs'
p1088
(lp1089
g269
asS'Krylon Glitter Blast Glitter Spray'
p1090
(lp1091
S'Paint a Glitter Guitar'
p1092
asS'indicator LEDs (different colors)'
p1093
(lp1094
g247
asS'Capacitor, ceramic, 0.1&micro;F'
p1095
(lp1096
g600
asS'Lumenlab Mega Projector Kit'
p1097
(lp1098
g495
asS'Aluminum tape'
p1099
(lp1100
g57
ag154
asS'DB9 D-sub connector, female, solder type'
p1101
(lp1102
g548
asS'Machine screws'
p1103
(lp1104
g163
ag142
ag125
asS'Mousepad'
p1105
(lp1106
g354
asS'1/4W 390k ohm resistor'
p1107
(lp1108
g250
asS'Neodymium magnets'
p1109
(lp1110
g95
asS'Highly Liquid MSA-R MIDI decoder kit'
p1111
(lp1112
g615
asS'Tumbled rocks, translucent'
p1113
(lp1114
g317
asS'Acrylic sheet'
p1115
(lp1116
g269
asS'Linear Taper Potentiometer'
p1117
(lp1118
g345
asS'Felt'
p1119
(lp1120
g278
aS'LED Shoe Clips'
p1121
ag84
ag237
aS'&#039;Talking&#039; Sock Puppet'
p1122
asS'Rechargeable AA batteries, 1.2V'
p1123
(lp1124
g63
asS'Audio speaker'
p1125
(lp1126
g163
asS'33K ohm resistor'
p1127
(lp1128
g738
asS'Clear-Lite polyester casting resin 16oz'
p1129
(lp1130
g320
asS'Printed Circuit Board'
p1131
(lp1132
g38
asS'MEKP liquid catalyst &frac12;oz'
p1133
(lp1134
g320
asS'Shoelace or bootlace, at least 36&quot; long, any color'
p1135
(lp1136
g242
asS'Ardweeny microcontroller'
p1137
(lp1138
g139
asS'Pieces of perf board'
p1139
(lp1140
g145
asS'Wood Glue or Epoxy'
p1141
(lp1142
g102
asS'LiPower board'
p1143
(lp1144
g220
asS'Battery pack'
p1145
(lp1146
g307
asS'Knob - Plastic 1/4&quot; shaft'
p1147
(lp1148
g373
asS'heatshrink tubing'
p1149
(lp1150
g133
ag178
asS'Resistor 220 ohms 1/4W'
p1151
(lp1152
g217
ag456
asS'&frac14;&quot; square hardwood stock at least 1&frac12;&quot; long'
p1153
(lp1154
g168
asS'Metallic snaps'
p1155
(lp1156
g184
asS'Glue'
p1157
(lp1158
g45
ag281
ag849
ag850
ag95
asS'Umbrella hat'
p1159
(lp1160
g729
asS'Mini speaker'
p1161
(lp1162
g27
asS'Speaker grill'
p1163
(lp1164
g28
asS'Duct tape'
p1165
(lp1166
g221
ag157
ag421
ag88
ag849
ag850
ag111
asS'insulated wrapping wire'
p1167
(lp1168
g48
ag618
asS'Pneumatic control valve'
p1169
(lp1170
g111
asS'Breadboard 3&quot;x5&quot;'
p1171
(lp1172
g373
asS'R/C car wheel and tire'
p1173
(lp1174
g90
asS'CD4066 quad CMOS switch'
p1175
(lp1176
g48
asS'Visor or belt clip'
p1177
(lp1178
g87
asS'Split washer'
p1179
(lp1180
g87
asS'Resistor 18 ohms 1W'
p1181
(lp1182
g456
asS'40-pin IC socket'
p1183
(lp1184
g399
asS'Milk crate'
p1185
(lp1186
g157
asS'Microphone housing'
p1187
(lp1188
g564
asS'Moisture-seal heat-shrink tubing'
p1189
(lp1190
g529
asS'24-gauge hookup wire various colors'
p1191
(lp1192
g317
asS'3 trays'
p1193
(lp1194
g512
asS'Ultrasonic distance sensors'
p1195
(lp1196
g142
asS'3mm Green LED'
p1197
(lp1198
g173
asS'Adafrut Circuit Boards'
p1199
(lp1200
g120
asS'Perf board, 2&quot; square'
p1201
(lp1202
g202
asS'Dual op-amp IC, MCP6002'
p1203
(lp1204
g260
asS'Shim'
p1205
(lp1206
g553
asS'Donor furniture'
p1207
(lp1208
g410
asS'DS3231 RTC'
p1209
(lp1210
g54
asS'Plastic milk jug'
p1211
(lp1212
g21
asS'Wool felt'
p1213
(lp1214
g18
asS'6 pin header, 0.1&quot;x0.1&quot; spacing'
p1215
(lp1216
g120
asS'disposable Chopsticks'
p1217
(lp1218
g910
asS'Parallax RFID Reader'
p1219
(lp1220
S'Using the Parallax RFID Reader with an Arduino'
p1221
ag6
asS'Square dowel'
p1222
(lp1223
g553
asS'Piano body'
p1224
(lp1225
g553
asS'2-wire cable'
p1226
(lp1227
g1042
asS'Infrared receiver/demodulator, 38kHz'
p1228
(lp1229
g108
asS'led bundle,include led displays'
p1230
(lp1231
g621
asS'Photodiodes'
p1232
(lp1233
g138
asS'Ruler'
p1234
(lp1235
g184
ag849
asS'Hookup wire, 22 AWG'
p1236
(lp1237
g600
asS'Storage containers'
p1238
(lp1239
g21
asS'Galvanized nails'
p1240
(lp1241
g21
asS'Cable'
p1242
(lp1243
g838
ag24
ag163
asS'28-PLCC socket'
p1244
(lp1245
g120
asS'12Kg/cm servo'
p1246
(lp1247
g910
asS'Cube tap extension cord'
p1248
(lp1249
g99
asS'Thermistor'
p1250
(lp1251
g328
ag529
ag21
asS'Plastic tubing'
p1252
(lp1253
g296
ag222
ag80
ag154
asS'Polyethylene tubing'
p1254
(lp1255
g48
asS'Embroidery needle'
p1256
(lp1257
g84
ag237
ag1027
asS'Cheapie Laser Pointer'
p1258
(lp1259
g171
asS'Resistors, 1&frasl;4-watt: 220&Omega;, 1.5k&Omega;, 3.9k&Omega;, 68k&Omega;, 1M&Omega;'
p1260
(lp1261
g317
asS'Switch, micro-mini toggle'
p1262
(lp1263
g600
asS'27 LEDs'
p1264
(lp1265
g1063
asS'Resistor 1K&Omega;'
p1266
(lp1267
S'Adding Auto-Fire to a Computer Mouse (555 timer)'
p1268
asS'100 ohm 1/4W 5% resistor (brown black brown gold)'
p1269
(lp1270
g114
ag373
asS'Coin cell battery'
p1271
(lp1272
g278
ag84
ag1027
aS'LED Jellies'
p1273
ag93
asS'Frequency generator and/or music sources'
p1274
(lp1275
g296
asS'Computer running Windows XP, Vista, or Mac OS X'
p1276
(lp1277
S'Boot a New OS: Setting Up Ubuntu on Your Computer'
p1278
ag1010
ag556
asS'Dark surface'
p1279
(lp1280
g89
asS'Acrylic paint'
p1281
(lp1282
g792
asS'Signal source'
p1283
(lp1284
g154
asS'MakerShield'
p1285
(lp1286
g344
ag163
ag15
ag334
asS'Funnel'
p1287
(lp1288
g21
asS'6-ft Audio Cable'
p1289
(lp1290
g194
asS'Plastic worm drive'
p1291
(lp1292
g160
asS'Scrap of sheet metal'
p1293
(lp1294
g58
asS'2N3904 NPN transistor'
p1295
(lp1296
g205
asS'Remote control'
p1297
(lp1298
g430
asS'2x10 position 0.1&quot; x 0.1&quot; female header'
p1299
(lp1300
g120
asS'LED, Yellow'
p1301
(lp1302
g250
asS'Voltage regulators'
p1303
(lp1304
g145
asS'(optinal) Fan guard, 5-8 inches square'
p1305
(lp1306
g515
asS'Resistors, &frac14; watt'
p1307
(lp1308
g202
asS'Toy gyroscope'
p1309
(lp1310
g226
asS'555 timer chip'
p1311
(lp1312
g738
asS'Dual-lead wire'
p1313
(lp1314
g615
asS'Memsic 2125 Dual-Axis accelorometer'
p1315
(lp1316
g621
asS"resistor bundle,include potentiometers and LDR's"
p1317
(lp1318
g621
asS'Wire-wrap or magnet wire'
p1319
(lp1320
g154
asS'Screws'
p1321
(lp1322
g45
ag157
aS'Animatronic Rocking Chair Prop'
p1323
ag382
asS'Capacitors: 300&mu;F tantalum'
p1324
(lp1325
g317
asS'Thrust bearing cage assembly'
p1326
(lp1327
g269
asS'Carbon paper'
p1328
(lp1329
g1027
asS'CRT monitor'
p1330
(lp1331
g157
asS'Microphone'
p1332
(lp1333
g729
asS'Arduino'
p1334
(lp1335
S'Technique:How to Install the Arduino IDE for Windows'
p1336
ag171
ag537
asS'Battery holder, 4xAA'
p1337
(lp1338
g12
ag41
ag260
asS'Cordless tool with large motor and gearing or speed control'
p1339
(lp1340
g102
asS'Prop Plug programming connector'
p1341
(lp1342
g399
asS'Alkaline battery'
p1343
(lp1344
g69
asS'.01uF / 250VAC (ceramic)'
p1345
(lp1346
g250
asS'Servo (generic), feather servos are good'
p1347
(lp1348
g621
asS'Copper Board'
p1349
(lp1350
g391
asS'Capacitors: 0.1&mu;F and 22&mu;F'
p1351
(lp1352
g399
asS'5mm Red LEDs'
p1353
(lp1354
g96
asS'Rubber membrane'
p1355
(lp1356
g329
asS'AVRmega15 microcontroller'
p1357
(lp1358
g266
asS'terminal post'
p1359
(lp1360
g140
asS'RS-232 serial extension cable, dB9 male-to-female'
p1361
(lp1362
g548
asS'Electrolytic Capacitor 10&micro;F'
p1363
(lp1364
g327
asS'Epoxy putty'
p1365
(lp1366
g495
asS'Garment'
p1367
(lp1368
g266
asS'Resitstors'
p1369
(lp1370
g543
asS'IV-18 vacuum fluorescent display (VFD) tube'
p1371
(lp1372
g120
asS'6&quot; Modular IC Breadboard'
p1373
(lp1374
g394
asS'Container'
p1375
(lp1376
g45
ag214
asS'Microphone case cartridges'
p1377
(lp1378
g564
asS'9 Volt alkaline battery'
p1379
(lp1380
g515
ag618
ag328
ag94
ag141
asS'USB socket'
p1381
(lp1382
g160
asS'Voltage regulator, KA7808AET'
p1383
(lp1384
g114
asS'5V voltage regulator'
p1385
(lp1386
g139
asS'PET plastic sheet'
p1387
(lp1388
g142
asS'LED Sewing Kit'
p1389
(lp1390
g1121
aS'LED Robot Ornament'
p1391
asS'O-rings'
p1392
(lp1393
g224
asS"Speaker wire, 4'"
p1394
(lp1395
g487
asS'Jumper wire kit'
p1396
(lp1397
g260
asS'Baseball cap'
p1398
(lp1399
g136
asS'Stereo audio jack, 3.5mm'
p1400
(lp1401
g108
asS'4.7k Resistors (pull-down resistors)'
p1402
(lp1403
g54
asS'Videocassette'
p1404
(lp1405
g45
asS'Lock nut, brass, 1/2&quot; pipe'
p1406
(lp1407
g487
asS'60V breakdown Schottky Diode'
p1408
(lp1409
g120
asS'Speaker, small 8&Omega;'
p1410
(lp1411
g487
asS'Real Time Clock IC'
p1412
(lp1413
g173
asS'Amplifier'
p1414
(lp1415
g154
asS'Rubbing Alcohol'
p1416
(lp1417
g645
asS'40 pin male header'
p1418
(lp1419
g29
asS'AC extension cords'
p1420
(lp1421
g21
asS'7x1 crimp terminal housing'
p1422
(lp1423
g608
asS'Step switch'
p1424
(lp1425
g325
asS'Overhead transparency'
p1426
(lp1427
S'Cheap, Friendly, and Precise PCB Etching'
p1428
asS'T-nut'
p1429
(lp1430
g86
ag125
asS'Graphite powder'
p1431
(lp1432
g154
asS'CR2032 coin cell battery'
p1433
(lp1434
g57
ag54
asS'Geared pager motors'
p1435
(lp1436
g35
asS'Flexible plastic tubing'
p1437
(lp1438
g522
ag628
asS'iRobot Create Platform'
p1439
(lp1440
g255
asS'Phototransistor'
p1441
(lp1442
g222
asS'inductor (see step 2)'
p1443
(lp1444
g247
asS'Sandpaper'
p1445
(lp1446
g495
ag1092
ag850
asS'Power diode'
p1447
(lp1448
g38
asS'3D-printed ABS body parts (3) and eyes (optional, 2)'
p1449
(lp1450
g15
asS'ShapeLock'
p1451
(lp1452
g142
asS'Solderless breadboard'
p1453
(lp1454
g269
ag260
ag137
ag354
ag703
ag537
asS'Grommet'
p1455
(lp1456
g214
asS'DIN 5-pin female receptacle'
p1457
(lp1458
g69
asS'High current switch'
p1459
(lp1460
g910
asS'LDR Light Sensor'
p1461
(lp1462
g217
asS'Soil mixture'
p1463
(lp1464
g21
asS'VFD driver in PLCC-28 package'
p1465
(lp1466
g120
asS'Stick-on rubber feet'
p1467
(lp1468
g125
asS'36-Pin Male Header'
p1469
(lp1470
g173
asS'0.1&quot; header pins (strip of 8 for each XKitz board)'
p1471
(lp1472
g351
asS'Ball bearings'
p1473
(lp1474
g157
asS'Salad bowl'
p1475
(lp1476
g553
asS'SMD Experimenters Bundle'
p1477
(lp1478
S'Circuit Skills: Surface Mount Devices'
p1479
asS'1x2 Furring Strip'
p1480
(lp1481
g133
asS'1/4W 5.6k ohm resistor'
p1482
(lp1483
g250
asS'USB Cable A to B - 6 Foot'
p1484
(lp1485
g456
asS'Fleece'
p1486
(lp1487
g83
ag324
asS'Snap connector leads'
p1488
(lp1489
g221
asS'Resistor 10&Omega;'
p1490
(lp1491
g185
asS'Acrylic'
p1492
(lp1493
g224
ag163
asS'Electrolytic Decoupling Capacitor - 100uF/25V'
p1494
(lp1495
g456
asS'Small tilt switches'
p1496
(lp1497
g348
asS'Miscellaneous pieces of wire.'
p1498
(lp1499
g1323
asS"Coaxial cable, RG-58, with BNC connectors, 3'"
p1500
(lp1501
S'Homemade Yagi Antenna'
p1502
asS'4.7K resistor (yellow purple red)'
p1503
(lp1504
g205
asS'2N4401 NPN Transistor'
p1505
(lp1506
g250
asS'Breakout Board for XBee Module'
p1507
(lp1508
g498
asS'Momentary push-button switch'
p1509
(lp1510
g48
asS'AC wall adapter'
p1511
(lp1512
g139
asS'Spider controller with HD servo shield'
p1513
(lp1514
g910
asS'Breadboard'
p1515
(lp1516
g157
ag326
ag41
ag42
ag89
ag292
ag139
ag529
ag293
ag345
asS'Metallic thread'
p1517
(lp1518
g184
asS'Ironing board material'
p1519
(lp1520
g184
asS'Mintronics: MintDuino'
p1521
(lp1522
S'Build a Mintronics: MintDuino'
p1523
asS'Painter&rsquo;s tape'
p1524
(lp1525
g80
asS'Hookup wire, solid core'
p1526
(lp1527
g108
ag54
asS'Photoresistor, cadmium sulfide (CdS)'
p1528
(lp1529
g105
asS'32.768 KHz, 12.5 pF watch crystal'
p1530
(lp1531
g120
asS'Barbecue skewer'
p1532
(lp1533
g208
asS'Breadboard Wire'
p1534
(lp1535
g12
asS'Drive wheels with bearings'
p1536
(lp1537
g145
asS'AA Battery Holder'
p1538
(lp1539
g24
asS'RFID tags'
p1540
(lp1541
g6
asS'Laser pointer'
p1542
(lp1543
g317
ag105
asS'Inverter'
p1544
(lp1545
g628
asS'15&quot; LCD display panel'
p1546
(lp1547
g495
asS'Gripper bracket'
p1548
(lp1549
g108
asS'Proximity sensor'
p1550
(lp1551
g163
asS'Pot of hot water'
p1552
(lp1553
g18
asS'7x1 ribbon cable'
p1554
(lp1555
g608
asS'Barrel connector'
p1556
(lp1557
g6
asS'Tension roller'
p1558
(lp1559
g226
asS'Audio jack, mono, &frac14;&quot; panel-mount'
p1560
(lp1561
g600
asS'Lead-acid battery'
p1562
(lp1563
g628
asS'Washers'
p1564
(lp1565
g157
aS'Earthquake Detector'
p1566
ag125
asS'Screw Terminal'
p1567
(lp1568
g250
asS'1/4W 470 ohm resistor'
p1569
(lp1570
g247
ag250
asS'SPTD Submini Toggle Switch'
p1571
(lp1572
g394
asS'Audio jack, Stereo inline, 1/8&quot;'
p1573
(lp1574
g600
asS'Super glue'
p1575
(lp1576
g208
ag90
asS'kabob stick'
p1577
(lp1578
g77
asS'Copper wire'
p1579
(lp1580
g863
ag117
ag95
asS'Switch, momentary pushbutton'
p1581
(lp1582
g600
asS'Perf board'
p1583
(lp1584
g325
ag399
ag151
ag329
ag142
ag125
asS'Fuse or circuit breaker'
p1585
(lp1586
g910
asS'5mm Blue LED Radio Shack Part #210-2850'
p1587
(lp1588
g753
asS'Arduino microcontroller'
p1589
(lp1590
g1221
ag99
aS'Arduino in C: See Your Microcontroller in a New Way'
p1591
aS'Arduino and Python: Learn Serial Programming'
p1592
ag191
ag317
ag703
ag293
ag143
ag144
ag289
ag21
ag6
ag825
ag96
aS'Arduino LED Exploration'
p1593
asS'DC motor'
p1594
(lp1595
g439
asS'100uF / 25v capacitor (electrolytic)'
p1596
(lp1597
g250
asS'Spring or big rubber band'
p1598
(lp1599
g543
asS'Jumpsuit'
p1600
(lp1601
g307
asS'Flashlight'
p1602
(lp1603
g89
asS'Wood'
p1604
(lp1605
g35
ag410
ag48
ag225
ag543
ag95
ag144
asS'Empty NES Shell'
p1606
(lp1607
g199
asS'Hotkeys for Arduino'
p1608
(lp1609
S'Instant Nature: Quick &amp; Peaceful'
p1610
asS'Foam tape'
p1611
(lp1612
g382
asS'Male header'
p1613
(lp1614
g326
ag144
asS'Stereo Cable'
p1615
(lp1616
g250
asS'Diodes'
p1617
(lp1618
g269
ag42
ag327
ag15
asS'NPN Transistor'
p1619
(lp1620
g327
ag529
asS'Protoboard'
p1621
(lp1622
g217
ag543
asS'Fishing Line'
p1623
(lp1624
g831
asS'Male quick coupler'
p1625
(lp1626
g111
asS'poster board sheet'
p1627
(lp1628
g102
asS'CD-R'
p1629
(lp1630
g1278
asS'The Box'
p1631
(lp1632
g495
asS'Infrared Proximity Sensor Long Range - Sharp GP2Y0A02YK0F'
p1633
(lp1634
g456
asS'Transistor, PNP'
p1635
(lp1636
g202
asS'Glue stick'
p1637
(lp1638
g146
asS'SD Card Holder'
p1639
(lp1640
g173
asS"Lightweight tubing or rod, fiberglass, carbon fiber, or hollow aluminum, about 1' (30cm)"
p1641
(lp1642
g63
asS'Pin headers'
p1643
(lp1644
g145
asS'Dimensional lumber'
p1645
(lp1646
g296
ag139
asS'3&quot; ABS pipe and pipe coupler'
p1647
(lp1648
g495
asS'Breadboard jumper wires, or solid core 22AWG wire'
p1649
(lp1650
g498
ag139
asS'1.0K Resistor'
p1651
(lp1652
g173
asS'USB cable'
p1653
(lp1654
g563
ag157
ag556
ag21
ag825
asS'220uF/6.3V capacitor'
p1655
(lp1656
g120
asS'22-gauge solid hookup wire'
p1657
(lp1658
g399
asS'Assorted switches contacts and other bend components'
p1659
(lp1660
g522
asS'Pipe hangers'
p1661
(lp1662
g329
asS'Pins'
p1663
(lp1664
g18
asS'EL wire'
p1665
(lp1666
g307
ag591
asS'2 6 Pins for Arduino'
p1667
(lp1668
g1063
asS'12mm 3V lithium coin cell'
p1669
(lp1670
g120
asS'Guitar strings'
p1671
(lp1672
g48
ag208
asS'Speaker, 2&quot;, 16&Omega;'
p1673
(lp1674
g63
asS'Metal film resistor'
p1675
(lp1676
g117
asS'USB A to A cable'
p1677
(lp1678
g160
asS'Propeller 40-pin microcontroller'
p1679
(lp1680
g399
asS'Capacitor'
p1681
(lp1682
g323
ag211
ag326
ag48
ag222
ag269
ag80
ag138
ag139
ag151
ag328
ag28
ag144
asS'Thick double-sided tape'
p1683
(lp1684
g94
asS'1/4&quot; plywood (~3 sq ft)'
p1685
(lp1686
g102
asS'Headphones'
p1687
(lp1688
g83
ag307
asS'Voltage regulator, 5V, 7805'
p1689
(lp1690
g600
asS'Transistors'
p1691
(lp1692
g543
ag89
ag15
ag145
asS'Capacitor ceramic 0.01&micro;F'
p1693
(lp1694
g600
ag394
asS'Brain Machine kit'
p1695
(lp1696
g178
asS'Lego tires'
p1697
(lp1698
g144
asS'Pin'
p1699
(lp1700
g205
asS'30k resistor (orange black orange)'
p1701
(lp1702
g205
asS'DC power source, switched, 8V - 12V, 2 - 3 amps'
p1703
(lp1704
g317
ag1323
asS'Switches'
p1705
(lp1706
g292
ag145
asS'Heat-shrink tubing, multicolor assortment'
p1707
(lp1708
g430
ag194
asS'Glass canning jars'
p1709
(lp1710
g529
asS'Constant radiation horns'
p1711
(lp1712
g80
asS'Case'
p1713
(lp1714
g117
ag325
asS'Cream of tartar'
p1715
(lp1716
g66
asS'Photocell, 100mW'
p1717
(lp1718
g317
asS'Insulated stranded hookup wire 22-gauge'
p1719
(lp1720
g591
asS'1/4W 5% 22 resistor'
p1721
(lp1722
g120
asS'Foam strip from Kinect package'
p1723
(lp1724
S'Kinect Privacy Guard from Kinect Package Material'
p1725
asS'Bluetooth Modem - BlueSMiRF Silver'
p1726
(lp1727
S'Android-Controlled LED Light Shirt'
p1728
asS'Servo extension cable'
p1729
(lp1730
S'Playful Puppy Robot'
p1731
asS'TV-B-Gone Kit'
p1732
(lp1733
g136
asS'Inductor coils'
p1734
(lp1735
g80
asS'DC power jack to PCB adapter'
p1736
(lp1737
g399
asS'Arduino Duemilanove'
p1738
(lp1739
g382
ag146
ag288
asS"Painter's tape"
p1740
(lp1741
g1092
ag111
asS'2x10 position 0.1&quot; x 0.1&quot; right angle header'
p1742
(lp1743
g120
asS'Pin header rows'
p1744
(lp1745
g142
asS'Plexiglass'
p1746
(lp1747
g982
ag329
asS'DC power jack'
p1748
(lp1749
g139
ag3
asS'0.1&mu;F capacitor monolithic 0.100&quot; lead spacing C2'
p1750
(lp1751
g320
asS'Nail polish remover'
p1752
(lp1753
g1428
asS'M3 lock washers'
p1754
(lp1755
g269
asS'Paper'
p1756
(lp1757
g221
ag86
ag850
ag90
ag93
ag146
asS'12mm 3V Coin Cell'
p1758
(lp1759
g173
asS'LED, T1&frac34; (5mm)'
p1760
(lp1761
g108
asS'Spring steel'
p1762
(lp1763
g553
asS'Copper clad PC board, single-sided 4 1/2&quot; x 6 1/8&quot;'
p1764
(lp1765
g487
asS'Wood screws'
p1766
(lp1767
g553
ag208
ag226
ag80
ag139
ag111
ag125
asS'Additional knob'
p1768
(lp1769
g382
asS'Metal snaps'
p1770
(lp1771
g83
asS'4-40 screw'
p1772
(lp1773
g831
asS'3-Axis Monster Mill Stepper Motor Driver Kit'
p1774
(lp1775
S'CNC Mini Mill Conversion Kit (Hardware)'
p1776
asS'Charlie Bear Project Bundle'
p1777
(lp1778
g6
asS'Microphone, with cable and plug'
p1779
(lp1780
g105
asS'Batteries, AA'
p1781
(lp1782
g724
ag260
ag6
asS"3' length of 1x2 red oak"
p1783
(lp1784
g168
asS'Pushbutton'
p1785
(lp1786
g394
asS'Microcontroller'
p1787
(lp1788
g564
ag142
ag3
asS'IPod USB connector'
p1789
(lp1790
S'Jailbreak an iPhone, iPod Touch, or iPad'
p1791
asS'Packing foam'
p1792
(lp1793
g354
asS'Packing tape'
p1794
(lp1795
g430
ag154
asS'Threaded PVC pipe connector (1/2&quot; bore)'
p1796
(lp1797
g487
asS'Paraffin'
p1798
(lp1799
g18
asS'FTDI serial programmer'
p1800
(lp1801
g139
asS'Amplifier and loudspeaker'
p1802
(lp1803
g296
asS'Speaker wire'
p1804
(lp1805
g1592
ag80
asS'Gorilla Glue'
p1806
(lp1807
g102
asS'Bipolar Stepper Motor'
p1808
(lp1809
g831
asS'Small Breadboard or protoshield'
p1810
(lp1811
g171
asS'Paint roller handle'
p1812
(lp1813
g729
asS'LED'
p1814
(lp1815
g863
ag323
ag184
ag278
ag83
ag266
ag84
ag132
ag1027
ag1592
ag1336
ag222
ag269
ag138
ag66
ag292
ag92
ag439
ag618
ag93
ag151
ag328
ag529
ag382
ag171
ag293
ag3
ag145
ag21
ag825
asS'Hot glue'
p1816
(lp1817
g608
ag35
ag58
ag160
ag111
asS'small plastic scraps'
p1818
(lp1819
g314
asS'Two wire connector'
p1820
(lp1821
g102
asS'Tactile switch'
p1822
(lp1823
g237
ag136
ag173
asS'8-pin headers (optional)'
p1824
(lp1825
g317
asS'SPST switch, non-momentary'
p1826
(lp1827
g91
asS'Clamp, ratcheting plastic, about 5&quot; long, with jaws that  open at least 1&frac14;&quot;'
p1828
(lp1829
g108
asS'Pipe flashing boot'
p1830
(lp1831
g296
asS'Nylon cable ties'
p1832
(lp1833
g1502
asS'Cracker box'
p1834
(lp1835
g28
asS'Knobs'
p1836
(lp1837
g382
asS'Band-Aids'
p1838
(lp1839
g80
asS'Photoresist PCB 4in x 6in'
p1840
(lp1841
g54
asS'Kill A Watt'
p1842
(lp1843
g323
asS'Microphone condenser elements'
p1844
(lp1845
g74
asS'Zip tie'
p1846
(lp1847
g221
ag205
ag96
asS'Trim Pot'
p1848
(lp1849
g328
asS'Auto Color Changings LEDs'
p1850
(lp1851
S'Fun with Push Lights'
p1852
asS'6V 300mA DC power supply'
p1853
(lp1854
g399
asS'Copper Clad PC board'
p1855
(lp1856
g327
asS'Double Stick Tape'
p1857
(lp1858
g133
asS'Transistor, NPN, 2N4401'
p1859
(lp1860
g60
asS'Preamp unit'
p1861
(lp1862
g564
asS'Electrical Tape'
p1863
(lp1864
g184
ag132
ag45
ag608
ag222
aS'LED Hoop Earring, Mk I'
p1865
aS'iPalm Unlimited'
p1866
ag850
ag205
ag628
ag529
ag15
ag144
asS'Square arcade buttons'
p1867
(lp1868
g199
asS'Shielded cable'
p1869
(lp1870
g69
asS'Hook-up wire'
p1871
(lp1872
g45
ag325
ag326
ag160
ag28
ag354
ag703
ag289
ag537
asS'LilyPad Pro Kit'
p1873
(lp1874
g220
asS'hook-up wire small any color'
p1875
(lp1876
g1852
asS'Cap screws'
p1877
(lp1878
g269
asS'Quad OR Gate (74HC32)'
p1879
(lp1880
g394
asS'Switching Diode'
p1881
(lp1882
g529
asS'card stock'
p1883
(lp1884
g178
asS'Rocker switch'
p1885
(lp1886
g69
asS'Lithium CMOS battery'
p1887
(lp1888
g132
asS'Sockets'
p1889
(lp1890
g145
asS'mint tin'
p1891
(lp1892
S'Mint Tin USB Travel Hub'
p1893
asS'Diode, 1N4001'
p1894
(lp1895
g3
asS'1/4W 180k ohm resistor'
p1896
(lp1897
g250
asS'Aluminum tube'
p1898
(lp1899
g269
ag529
asS'Small 8 ohm speaker'
p1900
(lp1901
g738
asS'Cradled Wood Panel'
p1902
(lp1903
g99
asS'3.3V Regulator'
p1904
(lp1905
g173
asS'Arduino ProtoShield kit'
p1906
(lp1907
g529
asS'PIC16F685 microprocessor'
p1908
(lp1909
g326
asS'Alligator clip leads (2-10) with points fine enough to connect to the inside of the laser pointer'
p1910
(lp1911
g105
asS'Musical greeting card'
p1912
(lp1913
g1122
asS'Battery snap, 9V'
p1914
(lp1915
g60
asS'Headers'
p1916
(lp1917
g382
asS'Salt'
p1918
(lp1919
g66
ag1428
asS'Battery Holder 3XAAA'
p1920
(lp1921
g42
ag327
asS'Electrolytic Capacitor 100&micro;F'
p1922
(lp1923
g41
asS'0.1uF ceramic capacitor'
p1924
(lp1925
g38
ag29
ag173
asS'Make project tin'
p1926
(lp1927
S'Build the Solar Theremin kit'
p1928
ag178
asS'470 Ohm resistors'
p1929
(lp1930
g289
asS'Capacitor, electrolytic'
p1931
(lp1932
g3
asS'tiny screws'
p1933
(lp1934
g825
asS'M3 screws'
p1935
(lp1936
g269
asS'generic project enclosure'
p1937
(lp1938
g583
asS'16x2 LCD'
p1939
(lp1940
g1592
asS'Pan / Tilt kit'
p1941
(lp1942
g1731
ag910
asS'Op-amp, LM358N'
p1943
(lp1944
g114
asS'Bundle of jumper leads.'
p1945
(lp1946
g621
asS'Gearmotor'
p1947
(lp1948
g329
ag382
asS'Metal ball caster'
p1949
(lp1950
g144
asS'7.2V / 7.4V Rechargeable battery pack'
p1951
(lp1952
g910
asS'Cellophane tape'
p1953
(lp1954
g144
asS'Stiff wire'
p1955
(lp1956
g108
asS'Speaker gasketing tape'
p1957
(lp1958
g80
asS'Aluminum channel'
p1959
(lp1960
g495
asS'Hooded sweatshirt'
p1961
(lp1962
g588
asS'Arduino Netshield'
p1963
(lp1964
g334
asS'MR16 LED Kit'
p1965
(lp1966
S'Super-Bright MR16 LED Kit'
p1967
asS'Foam Guide'
p1968
(lp1969
g1063
asS'Battery connector'
p1970
(lp1971
g28
asS'LED, 2-lead bicolor'
p1972
(lp1973
g105
asS'Metal stock'
p1974
(lp1975
g145
asS'Gloves'
p1976
(lp1977
g307
asS'.22uF / 50v capacitor (electrolytic)'
p1978
(lp1979
g250
asS'Bottle stoppers'
p1980
(lp1981
g48
asS'High-Brightness red LED'
p1982
(lp1983
g57
asS'Circuit board headers: 3-pin and 4-pin'
p1984
(lp1985
g399
asS'0.1uF ceramic capacitor 100V'
p1986
(lp1987
g120
asS'Carbon filter pack, 5-8 inches square'
p1988
(lp1989
g515
asS'Photographic gimbal head'
p1990
(lp1991
g160
asS'Timer chips'
p1992
(lp1993
g292
asS'1/4W 10k ohm resistor'
p1994
(lp1995
g250
ag344
asS'6mm tactile switch button'
p1996
(lp1997
g29
asS'9v battery snap'
p1998
(lp1999
g515
asS'Hookup wire, 22 gauge, multiple colors'
p2000
(lp2001
g191
ag114
ag60
asS'Control Knob'
p2002
(lp2003
g345
asS'Silicon diodes'
p2004
(lp2005
g35
asS'Sternlab LED Sewing Kit'
p2006
(lp2007
g1027
asS'high brightness white led'
p2008
(lp2009
g247
asS'Clear adhesive labels'
p2010
(lp2011
g492
asS'Resistor, 27k ohm'
p2012
(lp2013
g114
asS'Flat washer'
p2014
(lp2015
g87
ag269
asS'Connecting wire'
p2016
(lp2017
g32
asS'Wood stock'
p2018
(lp2019
g125
asS'RadioShack #278-503'
p2020
(lp2021
g89
asS'Slim USB Stick'
p2022
(lp2023
S'Technique:Get an Ultra-Slim USB Stick DeadDrop Ready'
p2024
asS'Speaker'
p2025
(lp2026
g1592
ag326
ag41
ag327
ag28
ag154
asS'LED display'
p2027
(lp2028
g292
asS'Power distribution block'
p2029
(lp2030
g145
asS'Machine screw'
p2031
(lp2032
g226
ag69
ag628
ag144
asS'Solar power lamp'
p2033
(lp2034
S'Solar Power Camp Light'
p2035
asS'Crimping beads'
p2036
(lp2037
g266
asS'2.1mm Power Jack'
p2038
(lp2039
g120
ag29
asS'Stirring sticks'
p2040
(lp2041
g320
asS'USB flash drives'
p2042
(lp2043
g85
asS'Vinegar'
p2044
(lp2045
g1428
asS'USB shield for Arduino'
p2046
(lp2047
g351
asS'Carriage bolts'
p2048
(lp2049
g111
asS'Headers, 2-pin'
p2050
(lp2051
g260
asS'Bare Bones Board'
p2052
(lp2053
g231
asS'Voltage regulator'
p2054
(lp2055
g27
ag329
asS'5-pin DIN (MIDI) connector'
p2056
(lp2057
g317
asS'Yarn, string, or other cord'
p2058
(lp2059
g1391
asS'Guitar body'
p2060
(lp2061
g222
asS'Safety glasses'
p2062
(lp2063
g96
asS'DIP socket'
p2064
(lp2065
g326
ag222
asS'1/2&quot; wood screws'
p2066
(lp2067
g202
asS'Sprockets'
p2068
(lp2069
g145
asS'PIC 16F916 microcontroller'
p2070
(lp2071
g320
asS'Frame for the clock'
p2072
(lp2073
g54
asS'altoids tin'
p2074
(lp2075
g314
asS'Custom circuit boards for power and signal distribution'
p2076
(lp2077
g255
asS'Sound recorder module (aka sampler board), 20-second'
p2078
(lp2079
g63
asS'Wave Shield'
p2080
(lp2081
g163
ag1610
ag6
asS'CR2032 Lithium Battery'
p2082
(lp2083
g1865
asS'0.01uf disk capacitor'
p2084
(lp2085
g205
asS'Mic-stand attachment'
p2086
(lp2087
g564
asS'LM7805 voltage regulator'
p2088
(lp2089
g211
asS'Box hinges'
p2090
(lp2091
g600
asS'Bag'
p2092
(lp2093
g220
asS'Drive motors'
p2094
(lp2095
g144
asS'Power supply or wall adapter, 6V DC, 750mA minimum'
p2096
(lp2097
g108
asS'Teflon tape'
p2098
(lp2099
g111
asS'PTFE tape'
p2100
(lp2101
g134
asS'Transparent disc'
p2102
(lp2103
g329
asS'Header Pins'
p2104
(lp2105
g461
asS'Diode: 1N4002'
p2106
(lp2107
g373
asS'Propane tank'
p2108
(lp2109
g296
asS'Krylon Glitter Blast Clear Sealer'
p2110
(lp2111
g1092
asS'Enclosure'
p2112
(lp2113
g140
ag146
asS'Metal card frame'
p2114
(lp2115
g45
asS'Fabric'
p2116
(lp2117
g588
ag184
ag278
ag1121
ag237
ag1027
ag220
ag138
ag1273
ag181
ag703
asS'Machine screws, 4-40 pan head: &frac12;&quot; (4), &frac34;&quot; (2)'
p2118
(lp2119
g108
asS'Pagoda lanterns'
p2120
(lp2121
g32
asS'Rheostat'
p2122
(lp2123
g28
asS'Mud'
p2124
(lp2125
g214
asS'Pipe hanger strap'
p2126
(lp2127
g329
asS'Phone jack'
p2128
(lp2129
g18
asS'XBee Series 2 Wireless Module'
p2130
(lp2131
g498
ag99
asS'5MHz crystal'
p2132
(lp2133
g399
asS'N-Channel HEXFET'
p2134
(lp2135
g120
asS'High-Brightness LED red'
p2136
(lp2137
g394
asS'Power supplies'
p2138
(lp2139
g89
asS'Wires'
p2140
(lp2141
g151
asS'Transformer, audio output, 1k&Omega; primary coil, 8&Omega; secondary'
p2142
(lp2143
g105
asS'Wall-Mount Oval Bulkhead Light'
p2144
(lp2145
g99
asS'1/4W 1k ohm resistor'
p2146
(lp2147
g247
ag250
asS'ATMega328p'
p2148
(lp2149
S'Technique:Read &amp; Write Flash Contents of Your Arduino or AVR Chip'
p2150
asS'Multi-way cable with at least four conductors'
p2151
(lp2152
g348
asS'Too much free time'
p2153
(lp2154
g328
asS'USB 2.0 Hub'
p2155
(lp2156
g1893
asS'Latex rubber cord'
p2157
(lp2158
g15
asS'hand crank flashlight'
p2159
(lp2160
S'Hand-Crank USB Charger'
p2161
asS'Nintendo Wii Remote'
p2162
(lp2163
g88
asS'Caulking gun'
p2164
(lp2165
g410
asS'LED White'
p2166
(lp2167
g58
asS'Double-sided tape'
p2168
(lp2169
g69
asS'Nylon gear'
p2170
(lp2171
g160
asS'1/4W 560 ohm resistor'
p2172
(lp2173
g250
asS'25 pin female solderable DSUB'
p2174
(lp2175
g618
asS'Capacitor, 220&mu;F electrolytic'
p2176
(lp2177
g202
ag487
asS'ipod USB charger'
p2178
(lp2179
g468
asS'CFL bulb'
p2180
(lp2181
g325
asS'Power Supply, 9V DC, regulated 1A minimum'
p2182
(lp2183
g217
asS'1/4W 5% 1.0K resistor'
p2184
(lp2185
g38
asS'15&quot; LCD Monitor (Preferably 12V in)'
p2186
(lp2187
g133
asS'Microprocessor'
p2188
(lp2189
g600
asS'RF Link Transmitter'
p2190
(lp2191
g12
asS'Box of Zip Ties'
p2192
(lp2193
g831
asS'Circuit board from the light brick kit'
p2194
(lp2195
g320
asS'CdS Photoresistor'
p2196
(lp2197
g738
ag171
ag172
asS'projBox'
p2198
(lp2199
g825
asS'1/4W 22k ohm resistor'
p2200
(lp2201
g250
asS'12Volt electric blanket'
p2202
(lp2203
S'Battery-Heated Poncho'
p2204
asS'Supercapacitor'
p2205
(lp2206
g138
asS'Knob, to fit a &frac14;&quot; (6.35mm) shaft'
p2207
(lp2208
g600
asS'Bobbins'
p2209
(lp2210
g134
asS'Paint Can'
p2211
(lp2212
g18
asS'Plastic bubble'
p2213
(lp2214
g1273
asS'Serial adapter'
p2215
(lp2216
g266
asS'iPhone, iPad or iPod touch'
p2217
(lp2218
S'Connect an iPhone, iPad, or iPod touch to Arduino with the Redpark Serial Cable'
p2219
asS'24LC 256 256K serial EEPRO M memory'
p2220
(lp2221
g399
asS'Level Shifter IC for SD Card'
p2222
(lp2223
g173
asS'Carpenter kneepads'
p2224
(lp2225
g307
asS'Microphones'
p2226
(lp2227
g564
asS'XBEE adapter kit'
p2228
(lp2229
g323
asS'Nut'
p2230
(lp2231
g86
ag144
asS'Du-Bro mini E/Z connectors'
p2232
(lp2233
g144
asS'USB A to B cable'
p2234
(lp2235
g1336
asS'Spacer'
p2236
(lp2237
g329
asS'half inch wood screws'
p2238
(lp2239
g373
asS'47uF / 25V  Electrolytic Capacitor'
p2240
(lp2241
g120
asS'Alum'
p2242
(lp2243
g66
asS'Panel Mount Mono 1/8&quot; Phone Jack'
p2244
(lp2245
g194
asS'DC Barrel Jack Adapter - Female'
p2246
(lp2247
g498
asS'Resistor, 10M ohm'
p2248
(lp2249
g114
asS'PVC document tube'
p2250
(lp2251
g69
asS'Heat shrink 3mm diameter (1/8 inch)'
p2252
(lp2253
g456
asS'Mono 1/4&quot; Phone Jack (female)'
p2254
(lp2255
g141
asS'Drywall screws'
p2256
(lp2257
g133
asS'9v battery snap (optional)'
p2258
(lp2259
g96
asS'Solarbotics GM10 pager gearmotors'
p2260
(lp2261
g63
asS'Scissor jack'
p2262
(lp2263
g543
asS'Darkroom'
p2264
(lp2265
g512
asS'Chumby'
p2266
(lp2267
S'Wi-Fi Plushie'
p2268
asS'Byonic&rsquo;s MT-300'
p2269
(lp2270
g492
asS'&frac14;&quot; washers'
p2271
(lp2272
g168
asS'Infrared Sensor Jumper Wire - 3-Pin JST'
p2273
(lp2274
g456
asS'10uF / 25v capacitor (electrolytic)'
p2275
(lp2276
g250
asS'Plastic cap'
p2277
(lp2278
g226
asS'DB-9 solder cup'
p2279
(lp2280
g492
asS'Magnet'
p2281
(lp2282
g225
asS'Drum and drumstick'
p2283
(lp2284
g326
asS'Motor wrap wire'
p2285
(lp2286
g225
asS'Arduino clone'
p2287
(lp2288
g618
asS"3/4&quot; hardwood dowel (3-4' long)"
p2289
(lp2290
g487
asS'Wall Charger - 5V USB'
p2291
(lp2292
g456
asS'1/4W 5% 270K resistor'
p2293
(lp2294
g120
asS'DC power connector'
p2295
(lp2296
g492
asS'Voltage regulator IC'
p2297
(lp2298
g160
ag3
asS'Cigar box'
p2299
(lp2300
g208
asS'micro-controller'
p2301
(lp2302
g529
asS'2&quot; PVC pipe, 10&quot; length'
p2303
(lp2304
g1323
asS'Magnifying glass'
p2305
(lp2306
g849
ag850
asS'Right angle tactile switch'
p2307
(lp2308
g120
asS'Hoop earring'
p2309
(lp2310
g1865
asS'ATmega168V-10PU Microcontroller'
p2311
(lp2312
g120
asS'Plumbing solder'
p2313
(lp2314
g35
asS'Muslin'
p2315
(lp2316
g237
asS'Polyester fiberfill'
p2317
(lp2318
g324
ag703
asS'Sheet steel'
p2319
(lp2320
g226
asS'Wine Cork Stopper'
p2321
(lp2322
g217
asS'Single-row header connector 6-pin 0.100&quot;'
p2323
(lp2324
g320
asS'LM2937 3.3V voltage regulator'
p2325
(lp2326
g399
asS'microcontroller board'
p2327
(lp2328
g157
asS'Cable ties, various sizes and colors'
p2329
(lp2330
g63
asS'5k Linear Potentiomater'
p2331
(lp2332
g373
asS'Relay Circuit Board'
p2333
(lp2334
g99
asS'Stranded wire 22- gauge or thereabouts'
p2335
(lp2336
g522
asS'Flat non-conducting box'
p2337
(lp2338
g522
asS'L-pad volume controls'
p2339
(lp2340
g80
asS'Canon CanoScan'
p2341
(lp2342
g849
ag850
asS'Resistors, 1k'
p2343
(lp2344
g351
asS'Solder'
p2345
(lp2346
g608
ag140
ag382
ag703
ag146
asS'Hook and loop tape'
p2347
(lp2348
g142
asS'Paint'
p2349
(lp2350
g945
ag329
ag382
ag144
ag146
asS'Copper tape'
p2351
(lp2352
g221
ag608
ag591
asS'555 timer'
p2353
(lp2354
g151
asS'Header, female'
p2355
(lp2356
g3
asS'5.1V Zener diode'
p2357
(lp2358
g38
asS'Rubber bumpers or feet'
p2359
(lp2360
g320
asS'Xbox 360 Controller'
p2361
(lp2362
g87
asS'Piezo Element'
p2363
(lp2364
g191
ag621
asS'Foam plate'
p2365
(lp2366
g95
asS'1-foot by 2-foot by 1/2-foot cardboard box'
p2367
(lp2368
g91
asS'Myoelectrode amplifiers'
p2369
(lp2370
g548
asS'Screw eyes'
p2371
(lp2372
g543
asS'Male breakaway  headers'
p2373
(lp2374
g125
asS'Screw terminal blocks'
p2375
(lp2376
g145
asS'Network cable'
p2377
(lp2378
g221
asS'Heatsinks'
p2379
(lp2380
g145
asS'LED 5mm'
p2381
(lp2382
g60
asS'Project box'
p2383
(lp2384
g211
asS'Servomotors'
p2385
(lp2386
g142
asS'Stuffed toy'
p2387
(lp2388
g6
asS'10mm vinyl bumpers'
p2389
(lp2390
g54
asS'22 awg wire'
p2391
(lp2392
g515
ag1592
ag776
aS'TV that Greets You: Adding Sensors'
p2393
asS'Conductive hook and loop'
p2394
(lp2395
g83
asS'adafruit max6675 temp sensor'
p2396
(lp2397
g334
asS'Reflective diffraction grating'
p2398
(lp2399
g329
asS'FX processor (like the Alesis PicoVerb)'
p2400
(lp2401
g199
asS'Laser module'
p2402
(lp2403
g329
asS'Snap connector for 9V battery'
p2404
(lp2405
g487
ag105
asS'Lego bricks'
p2406
(lp2407
g320
asS'Awl or nail and hammer'
p2408
(lp2409
g154
asS'PVC threaded nipple'
p2410
(lp2411
g69
asS'various wires'
p2412
(lp2413
g825
asS'Carriage bolt'
p2414
(lp2415
g42
asS'Rare earth magnets'
p2416
(lp2417
g1273
ag54
asS'Switch'
p2418
(lp2419
g132
ag226
ag328
ag382
ag142
ag3
ag146
asS'Solarbotics Gear Motor and Tread Package, GM9 (143:1, 90&deg; shaft)'
p2420
(lp2421
g63
asS'Epoxy'
p2422
(lp2423
g982
ag132
ag224
ag487
ag92
ag529
ag142
ag703
asS'Generic 12v power supply'
p2424
(lp2425
g583
asS'Ipod touch or Iphone'
p2426
(lp2427
S'Jailbreak an iPod Touch or iPhone'
p2428
asS'crooked plastic lever'
p2429
(lp2430
g1566
asS'Light gun'
p2431
(lp2432
g348
asS'LEDs'
p2433
(lp2434
g237
ag543
ag77
ag91
ag125
ag145
ag146
ag288
asS'0.022 uF Ceramic cap'
p2435
(lp2436
g738
asS'Male wire connection headers'
p2437
(lp2438
g35
asS'Lightweight fiberglass rod, very thin, about 6&quot; (15cm'
p2439
(lp2440
g63
asS'Parts from previous project'
p2441
(lp2442
g776
asS'PCB etching kit'
p2443
(lp2444
g540
asS'Magician Robot Controller'
p2445
(lp2446
g1731
asS'Diffused LEDs'
p2447
(lp2448
g1273
asS'Meat grinder'
p2449
(lp2450
g45
asS'Laser printer'
p2451
(lp2452
g391
asS'micro speaker'
p2453
(lp2454
g621
asS'Cellphone flasher'
p2455
(lp2456
g184
asS'Small machine screws and nuts'
p2457
(lp2458
g522
asS'32 awg copper laminated wire'
p2459
(lp2460
g351
asS'Op-Amp chip, Quad, LM324'
p2461
(lp2462
g60
asS'Dropcloth'
p2463
(lp2464
g1092
asS'SPST toggle switch'
p2465
(lp2466
g515
ag825
asS'Picaxe programming cable'
p2467
(lp2468
g600
asS'10 uf Electrolytic Capacitor'
p2469
(lp2470
g54
asS'Extension cord'
p2471
(lp2472
g211
asS'Dot matrix LED display modules, 8&times;32, with ribbon cable'
p2473
(lp2474
g139
asS'Guitar E string'
p2475
(lp2476
g146
asS'LEDs 5mm 20mA wide viewing angle 0.100&quot; lead spacing'
p2477
(lp2478
g320
asS'P-channel MOSFET'
p2479
(lp2480
g120
asS'555 timer IC from RadioShack'
p2481
(lp2482
g41
asS'Buttons'
p2483
(lp2484
g1122
asS'Disc magnet'
p2485
(lp2486
g92
asS'Infrared emitter and detector pair'
p2487
(lp2488
g382
asS'Switch, SPST toggle'
p2489
(lp2490
g487
asS'7.5-9v DC Brick Power Supply'
p2491
(lp2492
g498
asS'Flat non-conducting easily drillable box'
p2493
(lp2494
g522
asS'Flour'
p2495
(lp2496
g66
asS'Spray plastic polish'
p2497
(lp2498
g348
asS'Matte black tape'
p2499
(lp2500
g307
asS'Audio amplifier chip'
p2501
(lp2502
g28
asS'Servo extension wire'
p2503
(lp2504
g144
asS'Custom LM386 amplifier board for speaker'
p2505
(lp2506
g255
asS'Magnetic reed switch'
p2507
(lp2508
g137
asS'POSC kit'
p2509
(lp2510
g224
asS'PS/2 mouse'
p2511
(lp2512
g90
asS'Micro soaker hose kit'
p2513
(lp2514
g21
asS'IC chips'
p2515
(lp2516
g145
asS'Servo Motor'
p2517
(lp2518
g42
asS'Heat shrink tubing, 6&quot;'
p2519
(lp2520
g515
ag59
asS'Pendulum'
p2521
(lp2522
S'Pendulum Challenge Build'
p2523
asS'Roller chain'
p2524
(lp2525
g145
asS'Digital drum kit'
p2526
(lp2527
g86
asS'HiTorque Mini Mill'
p2528
(lp2529
g1776
asS'1/4W 1.2k ohm resistor'
p2530
(lp2531
g250
asS'Sheet cork'
p2532
(lp2533
g329
asS'Pattern'
p2534
(lp2535
g237
ag1027
asS'AA Battery Holders'
p2536
(lp2537
g133
asS'100 Ohm Resistor'
p2538
(lp2539
g738
asS'Arduino Ethernet Shield'
p2540
(lp2541
g146
asS'PCB Etchant'
p2542
(lp2543
g327
asS'Rectifier diode assortment 25 piece'
p2544
(lp2545
g59
asS'Laser line generator'
p2546
(lp2547
g160
asS'String'
p2548
(lp2549
g543
ag88
asS'Piezo Speaker'
p2550
(lp2551
g120
asS'Lightwire'
p2552
(lp2553
g221
asS'Transistor'
p2554
(lp2555
g35
ag137
ag138
ag328
ag703
asS'Mini breadboard'
p2556
(lp2557
g12
ag618
ag344
ag15
ag144
ag777
ag621
asS'Jumper Wires Premium 6&quot; M/M Pack of 10'
p2558
(lp2559
g456
asS'Cardboard'
p2560
(lp2561
g157
ag849
ag850
ag1391
ag382
asS'Box'
p2562
(lp2563
g89
asS'1/4W 5% 10K resistor'
p2564
(lp2565
g120
ag38
asS'Long Wire'
p2566
(lp2567
g1063
asS'Insulated wire'
p2568
(lp2569
g588
ag27
ag628
ag529
asS'2-line Phone cord'
p2570
(lp2571
g178
asS'IR Compound Eye'
p2572
(lp2573
g1731
asS'popsicle stick'
p2574
(lp2575
g77
asS'Heat sinks'
p2576
(lp2577
g329
asS'Lock washer'
p2578
(lp2579
g269
asS'Crystal oscillators'
p2580
(lp2581
g145
asS'Bridge rectifier'
p2582
(lp2583
g461
ag202
ag373
asS'Piezo buzzer'
p2584
(lp2585
g125
ag293
asS'Rod'
p2586
(lp2587
g134
ag226
ag838
ag145
asS'VCR'
p2588
(lp2589
g45
asS'Wheelchair motors'
p2590
(lp2591
g145
asS'Nylon insert lock nut'
p2592
(lp2593
g628
asS'Steel bar'
p2594
(lp2595
g69
asS'Bristol board'
p2596
(lp2597
g84
asS'Aluminum sheet'
p2598
(lp2599
g160
ag144
asS'Epoxy glue'
p2600
(lp2601
g134
ag154
asS'Freeduino motor control shield kit for Arduino'
p2602
(lp2603
g382
asS'Foil tape'
p2604
(lp2605
g48
asS'Wood glue'
p2606
(lp2607
g35
ag226
ag487
asS'LED holders'
p2608
(lp2609
g600
ag382
ag125
ag146
asS'Gas regulator'
p2610
(lp2611
g296
asS'Six-pin extension cables'
p2612
(lp2613
g231
asS'Wrapping wire'
p2614
(lp2615
g89
asS'Mic outputs'
p2616
(lp2617
g564
asS'rechargable AA battery'
p2618
(lp2619
g247
asS'Wood glue or white glue'
p2620
(lp2621
g382
asS'Casio SK-series keyboard'
p2622
(lp2623
g522
asS'Picaxe 08M microcontroller'
p2624
(lp2625
g108
asS'MuddWatt Hacker Board'
p2626
(lp2627
g214
asS'arduino nano 3.0'
p2628
(lp2629
g54
asS'Laptop computer running Windows XP (32-bit version)'
p2630
(lp2631
g548
asS'&frac14;&quot; threaded rod'
p2632
(lp2633
g495
asS'1/4W 68 ohm resistor'
p2634
(lp2635
g250
asS'24&quot;&times;24&quot; piece of   1&frasl;2&quot; plywood'
p2636
(lp2637
g373
asS'Electrolytic capacitor 100uF'
p2638
(lp2639
g327
asS'Conductive thread'
p2640
(lp2641
g184
ag278
ag83
ag324
ag237
ag1027
ag220
asS'Arduino microcontroller, Uno or Duemilanove'
p2642
(lp2643
g621
asS'(2) 3.5 oz Jell-O Snack cups Supermarket  (1) Saran Wrap Supermarket  (1) 1 1/4&quot; by 3&quot; sheet metal strip Home Depot or Hardware store (1 ft) Double side foam tape Hardware store or Radio Shack  (1) scrap piece of cardboard about 3&quot; dia. Supermarket'
p2644
(lp2645
g234
asS'Solar panel'
p2646
(lp2647
g628
asS'200mA fuse'
p2648
(lp2649
g120
asS'Blue-tack'
p2650
(lp2651
g351
asS'Plywood'
p2652
(lp2653
g35
ag226
ag42
ag80
ag18
ag329
ag125
asS'Adhesive tape, double-sided'
p2654
(lp2655
g63
asS'DC barrel jack'
p2656
(lp2657
g54
asS'Colored pencils'
p2658
(lp2659
g221
asS'Step motor'
p2660
(lp2661
g217
asS'Small power connector (male)'
p2662
(lp2663
g738
asS'1.2V NiMH Rechargeable batteries (2000 mAh)'
p2664
(lp2665
g133
asS'Moisture-seal heat-shrink end cap'
p2666
(lp2667
g529
asS'Power supply, 12V, 3.6W'
p2668
(lp2669
g114
asS'Capacitor: 1uf'
p2670
(lp2671
g373
asS'Stereo plug'
p2672
(lp2673
g74
asS'Circuit diagram'
p2674
(lp2675
g391
asS'Pre-sensitized PCB'
p2676
(lp2677
g1428
asS'Right angle SPDT switch'
p2678
(lp2679
g120
asS'Infrared LED'
p2680
(lp2681
g222
asS'iPod case'
p2682
(lp2683
g135
asS'Resistor Assortment, 1/8 watt, 500-piece'
p2684
(lp2685
g487
asS'Interfacing'
p2686
(lp2687
g184
asS'Clear gloss resin spray'
p2688
(lp2689
g320
asS'Black Card'
p2690
(lp2691
g94
asS'Tweezers'
p2692
(lp2693
g850
asS'Ribbon'
p2694
(lp2695
g1273
ag181
asS'&frac14;&quot; coupler nut'
p2696
(lp2697
g495
asS'Wire 30-gauge and 22-gauge'
p2698
(lp2699
g91
asS"Wire, stranded, 18&ndash;22 gauge, 3'"
p2700
(lp2701
g63
asS'Stereo mini (3.5mm) cable'
p2702
(lp2703
g399
asS'Ipod USB cord adapter'
p2704
(lp2705
g2428
asS'Thin metal sheet'
p2706
(lp2707
g154
asS'PIR sensor'
p2708
(lp2709
g2393
ag293
asS'Insulated solid-core wire'
p2710
(lp2711
g125
asS'Inverter from a &quot;graphic equalizer&quot; shirt'
p2712
(lp2713
g608
asS'Safelight'
p2714
(lp2715
g512
asS'Arduino Uno'
p2716
(lp2717
g1063
ag351
ag217
ag344
ag163
ag15
ag456
ag1610
ag2219
ag831
ag334
aS'Arduino Morse-Maker'
p2718
asS'Plastic'
p2719
(lp2720
g144
asS'Webcam'
p2721
(lp2722
g89
asS'12v DC Piezo Siren'
p2723
(lp2724
g194
asS'3 inch speaker'
p2725
(lp2726
g255
asS'Transformer, 16V-20V AC step-down'
p2727
(lp2728
g202
asS'Self-releasing polypropylene mold 3&quot;&times;5&quot;&times;15&quot;'
p2729
(lp2730
g320
asS'Battery holder for 2 AA batteries (or AAA)'
p2731
(lp2732
g205
asS'10&mu;F capacitor tantalum 16 volts 0.1&quot; lead spacing C1'
p2733
(lp2734
g320
asS'NPN Transistor BC337'
p2735
(lp2736
g456
asS'Double-sided photoresist PCB 6in x 6in'
p2737
(lp2738
g54
asS'1uF / 50v capacitor (electrolytic)'
p2739
(lp2740
g250
asS'Camera'
p2741
(lp2742
S'Flash Capacitor'
p2743
aS'Stitch Action Photography'
p2744
asS'Solder tabs'
p2745
(lp2746
g157
asS'Steel wire'
p2747
(lp2748
g221
ag133
ag69
asS'Pen pencil or markers'
p2749
(lp2750
g168
asS'5mm momentary button/switch'
p2751
(lp2752
g54
asS'Audio jacks'
p2753
(lp2754
g325
asS'Altoids sized tin'
p2755
(lp2756
g492
asS'Electrolytic Capacitor 1.0&mu;F'
p2757
(lp2758
g327
asS'metal repair tape'
p2759
(lp2760
g102
asS'Old Rocking Chair'
p2761
(lp2762
g1323
asS'Standoffs'
p2763
(lp2764
g222
ag163
asS'Data Logging Shield for Arduino'
p2765
(lp2766
g173
asS'Stripboard'
p2767
(lp2768
g600
ag90
asS'Advent Loudspeakers'
p2769
(lp2770
g80
asS'Short Wire'
p2771
(lp2772
g1063
asS'Resistor assortment, 500 piece'
p2773
(lp2774
g60
asS'Thumbtack'
p2775
(lp2776
g77
asS'Electrolytic capacitor 20&mu;F'
p2777
(lp2778
g1268
asS'Tracing paper (for light diffusion)'
p2779
(lp2780
g54
asS'Solar-Powered Theremin (Heliophone) Kit'
p2781
(lp2782
g1928
asS'Velcro tape'
p2783
(lp2784
g220
ag325
ag430
ag850
ag205
asS'Sharp GP2D12 Analog IR Distance Sensors'
p2785
(lp2786
g255
asS'Battery holder (long), 4&times;AA (2&times;2)'
p2787
(lp2788
g63
asS'Mini-to-RCA A/V cable'
p2789
(lp2790
g399
asS'Tuning pegs'
p2791
(lp2792
g208
asS'Voltage triggers'
p2793
(lp2794
g35
asS'Polymorph'
p2795
(lp2796
g910
asS'3&frac12;&quot; x 1&quot; (size 33) rubber bands'
p2797
(lp2798
g168
asS'Lunchbox'
p2799
(lp2800
g329
asS'USB video capture device'
p2801
(lp2802
g548
asS'UHF FM radio'
p2803
(lp2804
g1502
asS'10mm White LED Radio Shack Part #276-0005'
p2805
(lp2806
g753
asS'logitech m185 wireless mouse'
p2807
(lp2808
g314
asS'MDF'
p2809
(lp2810
g86
asS'20&ndash;22 gauge, insulated, stranded, various colors'
p2811
(lp2812
g142
asS'Quad Bot robot chassis'
p2813
(lp2814
g1731
asS'Silicone adhesive and 5-minute epoxy'
p2815
(lp2816
g329
asS'DIP socket for Arduino Nano'
p2817
(lp2818
g54
asS'Plexi Glass'
p2819
(lp2820
g133
asS'Can of expanding foam'
p2821
(lp2822
g133
asS'Conductive velcro'
p2823
(lp2824
g278
ag220
asS'Fabric fusing material'
p2825
(lp2826
g184
asS'Plastic ball casters'
p2827
(lp2828
g160
asS'Sheet metal screws'
p2829
(lp2830
g80
ag69
ag329
ag144
asS'Tracing Paper Sheet A4 110 to 200 gsm'
p2831
(lp2832
g456
asS'MAKE Telerobotic Gripper Kit'
p2833
(lp2834
g108
asS'2&quot; common nails (at least 3)'
p2835
(lp2836
g168
asS'Adhesive'
p2837
(lp2838
g382
asS'Small breadboard (RS : 276-003)'
p2839
(lp2840
g191
asS'Aluminum foil'
p2841
(lp2842
g421
ag91
ag205
asS'Positive developer'
p2843
(lp2844
g1428
asS'Audio cable'
p2845
(lp2846
g18
asS'Ceramic oscillator'
p2847
(lp2848
g3
asS'22pF capacitors monolithic or ceramic disc 0.100&quot; lead spacing (2 optional) C3 C4'
p2849
(lp2850
g320
asS'Plastic tubing fittings, 3/8&quot; OD'
p2851
(lp2852
g296
asS'16.00 MHz ceramic oscillator'
p2853
(lp2854
g29
asS'Access to Windows-based computer'
p2855
(lp2856
g323
asS'Stepper motor'
p2857
(lp2858
g269
asS'Rubber or vinyl strip'
p2859
(lp2860
g142
asS'Permanent marker'
p2861
(lp2862
g136
asS'Third-hand tool aka helping hands RS#: 64-079'
p2863
(lp2864
g515
asS'Multiway electrical connector'
p2865
(lp2866
g45
asS'Grounding bar'
p2867
(lp2868
g553
asS'Rolling ball tilt switch 0.100&quot; lead spacing SW1'
p2869
(lp2870
g320
asS'SPDT switches'
p2871
(lp2872
g145
asS'IC socket, 8 pin'
p2873
(lp2874
g600
asS'3/8&quot; bolt, nuts (2), and washers (2)'
p2875
(lp2876
g495
asS'ConnectPort X2'
p2877
(lp2878
g99
asS'Stretch fabric'
p2879
(lp2880
g307
asS'Toothpick'
p2881
(lp2882
g225
asS'Deck screws'
p2883
(lp2884
g296
asS'bundle of infrared devices,include a Parallax PIR'
p2885
(lp2886
g621
asS'LCD-Display'
p2887
(lp2888
g537
asS'Pneumatic cylinder'
p2889
(lp2890
g111
asS'Prop-1 controller'
p2891
(lp2892
g111
asS'Open-air headphones'
p2893
(lp2894
g181
asS'Washer'
p2895
(lp2896
g86
ag543
ag329
asS'Stationary bicycle'
p2897
(lp2898
g86
asS'Drawdio'
p2899
(lp2900
g324
asS'Breadboard kit'
p2901
(lp2902
g288
asS'Brass rods, 1/8&quot; diameter, 36&quot; long'
p2903
(lp2904
g1502
asS'3M TL20 temperature loggers'
p2905
(lp2906
g1042
asS'Motor driver chips, L293D'
p2907
(lp2908
g63
asS'Acrylic/plegixglass sheet'
p2909
(lp2910
g157
ag139
asS'Rubber grommet'
p2911
(lp2912
g178
asS'M3 washers'
p2913
(lp2914
g269
asS'0.1&quot; sockets (strip of 8 for each XKitz board)'
p2915
(lp2916
g351
asS'Reading glasses (1.25 to 2.0 diopter from the dollar store)'
p2917
(lp2918
S'Fifty-Cent Macro Lens'
p2919
asS'Enclosed speaker'
p2920
(lp2921
g111
asS'AC adapter'
p2922
(lp2923
g703
asS'Fine sandpaper or Kitchen Scrubber'
p2924
(lp2925
g391
asS'Dowel'
p2926
(lp2927
g615
ag838
asS'Something to make a new enclosure'
p2928
(lp2929
g281
asS'Plastic bottle'
p2930
(lp2931
g91
asS'2 8 Pins for Arduino'
p2932
(lp2933
g1063
asS'Balsa Wood Sheet 36&quot; x 3/16&quot; x 3&quot;'
p2934
(lp2935
g456
asS'&frac14;&quot; wing nuts'
p2936
(lp2937
g168
asS'Monolithic capacitors'
p2938
(lp2939
g35
asS'Electrolytic capacitor'
p2940
(lp2941
g117
ag35
asS'Li-Po battery pack'
p2942
(lp2943
g1731
asS'470uf Capacitors'
p2944
(lp2945
g461
asS'Battery, 9V'
p2946
(lp2947
g600
aS'Turn Your Old Speakers into New'
p2948
ag487
ag60
ag105
asS'18-22pF ceramic capacitor'
p2949
(lp2950
g38
asS'PC board, grid style, with 371 holes'
p2951
(lp2952
g60
asS'Electrodes, medical'
p2953
(lp2954
g114
asS'Latex gloves, anti-static mat, and anti-static wrist strap'
p2955
(lp2956
g495
asS'Bumpers'
p2957
(lp2958
g3
asS'Silicon Caulking'
p2959
(lp2960
g133
asS'ipod'
p2961
(lp2962
g468
asS'Quilt batting'
p2963
(lp2964
g1273
asS'Bipolar stepper driver/motor combo'
p2965
(lp2966
g160
asS'Epoxy, quick-setting'
p2967
(lp2968
g63
asS'Paper cups 12oz or 16oz'
p2969
(lp2970
g320
asS'Heart-shaped stickers (optional)'
p2971
(lp2972
g91
asS'Earbud headphones'
p2973
(lp2974
g181
ag503
asS'PVC pipe and elbows'
p2975
(lp2976
g831
asS'Breadboard Mini Self-Adhesive'
p2977
(lp2978
g456
asS'Audio jack, 1/8&quot;, mono, panel mount'
p2979
(lp2980
g487
asS'5-minute epoxy'
p2981
(lp2982
g222
ag135
asS'Nintendo Wii video game console'
p2983
(lp2984
g548
asS'1/4&quot; TRS jack'
p2985
(lp2986
g117
asS'Capacitors, electrolytic, 15V or greater: 4.7&mu;F, 47&mu;F'
p2987
(lp2988
g108
asS'Push button'
p2989
(lp2990
g1268
asS'Color organ parts kit'
p2991
(lp2992
S'Circuit Skills:     LED Color Organ'
p2993
asS'Heavy cardstock'
p2994
(lp2995
g849
ag850
asS'Dual general-purpose IC PC board'
p2996
(lp2997
g48
asS'Plastic tubing fittings, 3/8&quot; OD, push-to-connect (PTC)'
p2998
(lp2999
g296
asS'9v battery snap to arduino connecter'
p3000
(lp3001
g96
asS'Photocell'
p3002
(lp3003
g21
asS'Spray paint'
p3004
(lp3005
g86
ag1391
ag154
asS'1/2&quot; hardwood dowel (2&quot; long&quot;)'
p3006
(lp3007
g487
asS'Mason twine 15 and 18'
p3008
(lp3009
g168
asS'SPST momentary push-button'
p3010
(lp3011
g125
asS'Resistor 10K&Omega;'
p3012
(lp3013
g1268
asS'1/4&quot; copper tubing (~3 ft)'
p3014
(lp3015
g102
asS'Solderless breadboard, half-size'
p3016
(lp3017
g108
asS'Copper pipe'
p3018
(lp3019
g160
asS'Adafruit Waveshield to store and play voice and music clips'
p3020
(lp3021
g255
asS'Electrolytic Capacitor 1.0uF'
p3022
(lp3023
g42
asS'Fretbuzz software'
p3024
(lp3025
g1010
asS'Female audio output jack'
p3026
(lp3027
g222
asS'1/4W 10 ohm resistor'
p3028
(lp3029
g250
asS'Mintronics: Menta Kit'
p3030
(lp3031
g3
asS'Nylon webbing'
p3032
(lp3033
g184
asS'Camera tripod'
p3034
(lp3035
g69
asS'Project enclosure/ parts'
p3036
(lp3037
S'Technique:Mr. B&#039;s Lab: How To Solder'
p3038
asS'Camp light'
p3039
(lp3040
g2035
asS'LM317'
p3041
(lp3042
g373
asS'Sock'
p3043
(lp3044
g1122
asS'SIM Card Holder'
p3045
(lp3046
g38
asS'D-sub connectors'
p3047
(lp3048
g157
asS'Meter'
p3049
(lp3050
g135
asS'100uF/6.3V capacitor'
p3051
(lp3052
g38
ag29
ag173
asS'Maksing tape'
p3053
(lp3054
g382
asS'555 timer IC chip'
p3055
(lp3056
g1268
asS'Standard driver'
p3057
(lp3058
g221
asS'Mini Volt Meter (ID: 460 from Adafruit Industries NOTE: These operate from +3.2V to +30V DC and are powered by the supply being measured)'
p3059
(lp3060
g373
asS'Embroidery thread'
p3061
(lp3062
g83
ag237
asS'Mini alligator clip jumpers'
p3063
(lp3064
g114
asS'Headphones, 1/8&quot; plug, mono or stereo'
p3065
(lp3066
g487
asS'3&quot; computer fan'
p3067
(lp3068
g583
asS'Capacitor, 0.01&mu;F'
p3069
(lp3070
g487
asS'Truth Meter Kit'
p3071
(lp3072
g260
asS'PCB or solderless breadboard'
p3073
(lp3074
g114
asS'60V zener diode'
p3075
(lp3076
g120
asS'Capacitors: 10nF'
p3077
(lp3078
g260
asS'Switch, SPDT slide'
p3079
(lp3080
g114
asS'Hookup wire, 22 AWG stranded'
p3081
(lp3082
g600
asS'carbon air filter'
p3083
(lp3084
g583
asS'RCA jacks'
p3085
(lp3086
g329
asS'Power jack'
p3087
(lp3088
g329
ag125
asS'Any computer running Mac OS X'
p3089
(lp3090
S'Fun Terminal Hacks for Mac'
p3091
asS'Finishing nails'
p3092
(lp3093
g35
asS'Hobby knife'
p3094
(lp3095
g849
ag850
asS'DIP IC sockets'
p3096
(lp3097
g292
asS'Sharp GP2D12 or GP2D120 IR range sensors'
p3098
(lp3099
g317
asS'Ceramic capacitor'
p3100
(lp3101
g117
asS'Breakout Pack for Arduino and iPhone'
p3102
(lp3103
g2219
asS'Square wooden dowel, 1&quot;x1&quot;x30&quot; or longer'
p3104
(lp3105
g1502
asS'Flat non-conducting easily drillable panel about 5&quot;x5&quot;'
p3106
(lp3107
g522
asS'Wire Insulated'
p3108
(lp3109
g58
ag430
asS'Paper clip'
p3110
(lp3111
g35
ag615
ag93
asS'tin; tobacco tins have their uses'
p3112
(lp3113
g621
asS'Binding post'
p3114
(lp3115
g80
asS'single AA battery holder'
p3116
(lp3117
g247
asS'Transistor, NPN'
p3118
(lp3119
g202
asS'Audio toy, mono (single speaker)'
p3120
(lp3121
g185
asS'Spray mount adhesive'
p3122
(lp3123
g160
asS'HDPE plastic tubing'
p3124
(lp3125
g132
asS'3.579545 MHz (&quot;colorburst&quot;) crystal'
p3126
(lp3127
g38
asS'1K Resistor'
p3128
(lp3129
g29
asS'Transmissive diffraction grating'
p3130
(lp3131
g329
asS'NPN silicon transistor'
p3132
(lp3133
g117
asS'Infrared remote control'
p3134
(lp3135
g108
asS'Cast phono plugs'
p3136
(lp3137
g160
asS'Rubber feet (4)'
p3138
(lp3139
g399
asS'Web Camera'
p3140
(lp3141
g58
asS'Metal strap carriers'
p3142
(lp3143
g184
asS'MotorShield for Arduino Kit'
p3144
(lp3145
g724
asS'Plastic cups'
p3146
(lp3147
g154
asS'OPTIONAL'
p3148
(lp3149
g168
asS'Audio player'
p3150
(lp3151
g111
asS'220 ohm resistors Radio Shack Part #206-2340'
p3152
(lp3153
g753
asS'Hydrogen Peroxide (3%)'
p3154
(lp3155
g1428
asS'Perfboards'
p3156
(lp3157
g211
asS'Transformer'
p3158
(lp3159
g211
asS'Ping pong ball'
p3160
(lp3161
g831
asS'Battery clip'
p3162
(lp3163
g27
ag6
asS'Wood plank'
p3164
(lp3165
g35
asS'Small cable ties'
p3166
(lp3167
g125
asS'XBee Pulse I/O Electrical Components (for Breadboard Prototype)'
p3168
(lp3169
g498
asS'Rubber feet'
p3170
(lp3171
g163
asS'22uF / 100V Electrolytic Capacitor'
p3172
(lp3173
g120
asS'Relay'
p3174
(lp3175
g21
asS'Rubber bands and/or strong tape'
p3176
(lp3177
g296
asS'10k Pot'
p3178
(lp3179
g143
asS'Micro USB Cable'
p3180
(lp3181
g351
asS'Metal washers'
p3182
(lp3183
g63
asS'Hard disk drive'
p3184
(lp3185
g563
ag85
asS'insulated copper wire'
p3186
(lp3187
g77
asS'Bliptronics LED pixel'
p3188
(lp3189
g1728
asS'Monofilament (Fishing) Line'
p3190
(lp3191
g1865
asS'Plushie'
p3192
(lp3193
g2268
asS'Steel conduit'
p3194
(lp3195
g296
asS'Female-to-female jumper wires'
p3196
(lp3197
g63
asS'Press-in/MPT adapter'
p3198
(lp3199
g111
asS'female crimp terminals'
p3200
(lp3201
g608
asS'Bricks'
p3202
(lp3203
g21
asS'Magnets'
p3204
(lp3205
g134
ag58
ag18
asS'Microchip MCP3208 analog-to-digital converter (ADC)'
p3206
(lp3207
g399
asS'Picaxe-28X1 Starter Pack (USB)'
p3208
(lp3209
g63
asS'LM1084IT 5Amp 5V LDO Linear Regulator'
p3210
(lp3211
g1728
asS'Potentiometer, linear, vertical PCB mount'
p3212
(lp3213
g600
asS'Masking tape'
p3214
(lp3215
g495
ag326
ag224
ag225
ag543
asS'Steel shaft'
p3216
(lp3217
g160
asS'ChronoDot real-time clock module'
p3218
(lp3219
g163
asS'Piezo Sensor'
p3220
(lp3221
g354
asS'Gumballs'
p3222
(lp3223
g125
asS'20k&Omega; resistors &frac14; watt 5 carbon film'
p3224
(lp3225
g320
asS'Sunglasses'
p3226
(lp3227
g792
asS'Beeper/Buzzer'
p3228
(lp3229
g94
ag24
asS'120V AC female connector'
p3230
(lp3231
g529
asS'Heli-Cal zero backlash coup'
p3232
(lp3233
g1776
asS'Computer'
p3234
(lp3235
g157
ag564
ag58
ag88
ag2744
ag146
asS'Cellphone battery'
p3236
(lp3237
g83
asS'Aluminum tubes, 1&frasl;2&quot; &times; 36&quot;'
p3238
(lp3239
g317
asS'Caulk'
p3240
(lp3241
g410
asS'Zip ties'
p3242
(lp3243
g729
ag111
ag382
ag142
asS'Serial extension cables'
p3244
(lp3245
g48
asS'CR2032 coin cell battery holder'
p3246
(lp3247
g54
asS'1/4W 270k ohm resistor'
p3248
(lp3249
g250
asS'Rigid styrofoam sheet'
p3250
(lp3251
g154
asS'plastic board'
p3252
(lp3253
g1566
asS'20nf capacitor'
p3254
(lp3255
g863
asS'Diodes, 1N4001'
p3256
(lp3257
g260
asS'Velcro tape, 3&frasl;4&quot;, 7&quot; long'
p3258
(lp3259
g260
asS'Regular pencil'
p3260
(lp3261
g205
asS'Stackable header pins'
p3262
(lp3263
g351
asS'Mini-Mill CNC kit #2'
p3264
(lp3265
g1776
asS'Guitar Hero III: Legends of Rock video game, Wireless Bundle with Gibson Les Paul controller'
p3266
(lp3267
g548
asS'USB cables'
p3268
(lp3269
g85
asS'12mm Coin Cell Holder'
p3270
(lp3271
g120
ag173
asS'Ethernet jack'
p3272
(lp3273
g522
asS'Conductive fabric'
p3274
(lp3275
g324
asS'Capacitors: 0.1&mu;F'
p3276
(lp3277
g317
ag260
ag114
ag373
asS'3 Resistors'
p3278
(lp3279
g1063
asS'Relay SPST -NO'
p3280
(lp3281
g529
asS'Assorted colored markers'
p3282
(lp3283
g91
asS'On/off switch'
p3284
(lp3285
g266
ag1027
ag178
ag144
asS'Electrolytic Capacitor 1000uF'
p3286
(lp3287
g42
ag373
asS'Thread'
p3288
(lp3289
g588
ag278
ag83
ag324
ag266
ag1027
ag220
ag1122
ag136
ag1273
ag111
ag703
ag6
asS'Battery holder clips'
p3290
(lp3291
g117
ag144
asS'Capacitors'
p3292
(lp3293
g543
ag292
ag329
ag145
asS'Hydrogen Peroxide (H2O2)'
p3294
(lp3295
g391
asS'&frac14;&quot;x3&quot; eyebolts and nuts'
p3296
(lp3297
g168
asS'3mm Red LED'
p3298
(lp3299
g173
asS'Power Cable'
p3300
(lp3301
g373
asS'Green or Red 3mm LED'
p3302
(lp3303
g38
asS'Scrap of plastic'
p3304
(lp3305
g329
asS'ATMega328'
p3306
(lp3307
g618
aS'Replace and Re-Flash a Blown Arduino'
p3308
asS'120v-9v transformer'
p3309
(lp3310
g140
asS'Bubble wrap'
p3311
(lp3312
g117
asS'Polyester sheet'
p3313
(lp3314
g57
asS'12x5 8&quot; wood screws'
p3315
(lp3316
g168
asS'Power connector'
p3317
(lp3318
g583
asS'Android phone'
p3319
(lp3320
g1728
ag351
asS'Digital clock radio'
p3321
(lp3322
g348
asS'&frac14;&quot; eyelet bolt and nuts'
p3323
(lp3324
g495
asS'Jumper Wire Pack'
p3325
(lp3326
g1731
asS'iNecklace'
p3327
(lp3328
S'iHacked the iNecklace'
p3329
asS'Internal or external sound card'
p3330
(lp3331
g1010
asS'MIDI jack'
p3332
(lp3333
g217
ag615
asS'Cable ties'
p3334
(lp3335
g27
ag48
ag15
ag1731
ag910
asS'Heat-shrink tubing'
p3336
(lp3337
g588
ag221
ag27
ag317
ag48
ag58
ag136
ag591
ag63
ag74
ag181
ag382
ag144
ag146
asS'47uF / 25V  capacitor'
p3338
(lp3339
g29
asS'555 Timer IC'
p3340
(lp3341
g42
ag394
ag328
asS'windshield wiper motor'
p3342
(lp3343
g1323
asS'Marine Wire'
p3344
(lp3345
g214
asS'Stiff cardboard (not corrugated)'
p3346
(lp3347
g54
asS'PNP Transistor'
p3348
(lp3349
g327
asS'LED any size or type e.g. Mouser 604-WP7113QBC D'
p3350
(lp3351
g1865
asS'Prototyping PC board'
p3352
(lp3353
g222
ag28
ag825
asS'1/4W 5% 100K resistor'
p3354
(lp3355
g120
ag114
asS'0.1uF ceramic capacitor (104)'
p3356
(lp3357
g120
asS'1/4&quot; plywood and a scrap of 1/8&quot; clear plastic'
p3358
(lp3359
g194
asS'Weight'
p3360
(lp3361
g543
ag18
asS'Purse snap'
p3362
(lp3363
g278
asS'Servomotor, radio-controlled (R/C), standard size  (roughly 40mm&times;20mm&times;38mm), with double-arm horn'
p3364
(lp3365
g108
asS"Jeweler's wire"
p3366
(lp3367
g42
asS'7805 Voltage Regulator'
p3368
(lp3369
g317
ag120
ag618
asS'Green Laser Safety Goggles'
p3370
(lp3371
g217
asS'Speakers'
p3372
(lp3373
g329
asS'Dual mini perf boards'
p3374
(lp3375
g35
asS'Gameboy advance SP'
p3376
(lp3377
g199
asS'5k TRIMPOT'
p3378
(lp3379
g217
asS'5V regulator'
p3380
(lp3381
g29
asS'Connecting (jumper) wires'
p3382
(lp3383
g777
asS'DIN 5-pin male plug'
p3384
(lp3385
g69
asS'resistors'
p3386
(lp3387
g108
ag157
ag543
ag292
ag529
ag382
ag15
ag125
ag145
ag146
asS'Spacers'
p3388
(lp3389
g1731
asS'Resistor, 500-piece assortment, 1/4 Watt'
p3390
(lp3391
g394
asS'R/C transmitter and receiver'
p3392
(lp3393
g145
asS'Craft glue'
p3394
(lp3395
g146
asS'DC power supply'
p3396
(lp3397
g266
ag320
asS'toy bubbles (from a vendor)'
p3398
(lp3399
g77
asS'Speaker, 3&quot;'
p3400
(lp3401
g6
asS'Lock washers'
p3402
(lp3403
g144
asS'Potentiometer, 5k&Omega;, audio taper'
p3404
(lp3405
g487
asS'Insulated wire, 18 gauge, 10&quot; lengths'
p3406
(lp3407
g260
asS'Compression spring'
p3408
(lp3409
g15
asS'IC socket, 28 pin'
p3410
(lp3411
g3
asS'10k&Omega; trimpot variable resistor'
p3412
(lp3413
g399
asS'5Kg/cm servo'
p3414
(lp3415
g910
asS'Data acquisition board'
p3416
(lp3417
g548
asS'Solid-core wrap wire'
p3418
(lp3419
g74
asS'Multiplexer chips'
p3420
(lp3421
g157
asS'Connector header'
p3422
(lp3423
g6
asS'Common-mode choke'
p3424
(lp3425
g138
asS'Silicone sealer'
p3426
(lp3427
g48
asS'Zener diode, 5.1V, 1N4733A'
p3428
(lp3429
g59
asS'Crock Pot'
p3430
(lp3431
g529
asS'bearing'
p3432
(lp3433
g1566
asS'ProtoShield'
p3434
(lp3435
g345
asS'Double-sided foam tape'
p3436
(lp3437
g323
ag117
asS'Momentary switches'
p3438
(lp3439
g522
asS'10 Ohm, 1/8 Watt resistor'
p3440
(lp3441
g141
asS'Alligator clips'
p3442
(lp3443
g522
asS'Poster putty'
p3444
(lp3445
g348
asS'Knob'
p3446
(lp3447
g185
asS'9V Battery Holder'
p3448
(lp3449
g94
asS'PC board'
p3450
(lp3451
g247
ag145
asS'Various electronic components'
p3452
(lp3453
g255
asS'6 1/8 in x 6 1/8 in clear acrylic sheet'
p3454
(lp3455
g54
asS'.1 uf Ceramic Capacitor'
p3456
(lp3457
g54
asS'100pF (ceramic)'
p3458
(lp3459
g250
asS'Parallax PIR sensor'
p3460
(lp3461
g339
asS'Plastic model cement'
p3462
(lp3463
g329
asS'Arduino or similar 8-bit microcontroller'
p3464
(lp3465
g1728
asS'Solar cell'
p3466
(lp3467
g35
ag135
ag430
asS'Servo controller'
p3468
(lp3469
g543
asS'Relay control PCB'
p3470
(lp3471
g529
asS'Resistors: 270&Omega; (2), 560&Omega;, 1.1k&Omega;, 4.7k&Omega; (2), and 10k&Omega;'
p3472
(lp3473
g399
asS'PVC pipe cap'
p3474
(lp3475
g838
asS'Nonmetallic thread'
p3476
(lp3477
g184
asS'3.9k resistor'
p3478
(lp3479
g354
asS'Arduino or clone'
p3480
(lp3481
g263
aS'Technique:Notifying doorbell'
p3482
asS'Elastic bands'
p3483
(lp3484
g222
asS'(Optional) heat shrink tubing'
p3485
(lp3486
g205
asS'Plastic wrap'
p3487
(lp3488
g281
as.