(dp0
S'measuring tape'
p1
(lp2
S'LED Hula Hoop'
p3
asS'led sewing kit'
p4
(lp5
S'LED Shoe Clips'
p6
asS'lithium 3v battery'
p7
(lp8
S'Emoting Puppets'
p9
asS'hdpe plastic tubing'
p10
(lp11
g3
asS'paper'
p12
(lp13
S'Annie&#039;s Blinking El Wire Eye'
p14
asS'jumpsuit'
p15
(lp16
S'Light-Up EL Wire Costume'
p17
asS'bristol board'
p18
(lp19
S'LED Night-Light Cube'
p20
asS'snap connector leads'
p21
(lp22
g14
asS'tape'
p23
(lp24
S'Rock Star Headphones'
p25
ag20
asS'colored pencils'
p26
(lp27
g14
asS'zip tie'
p28
(lp29
g14
asS'conductive fabric'
p30
(lp31
S'Musical Drawdio Puppet'
p32
asS'drawdio'
p33
(lp34
g32
asS'metal strap carriers'
p35
(lp36
S'Space Invaders Tote'
p37
asS'cellphone battery'
p38
(lp39
g25
asS'metallic thread'
p40
(lp41
g37
asS'ironing board material'
p42
(lp43
g37
asS'el wire'
p44
(lp45
g17
asS'lipower board'
p46
(lp47
S'Arduino Blinking Bike Patch'
p48
asS'leds'
p49
(lp50
g9
asS'sternlab led sewing kit'
p51
(lp52
S'Electronic Embroidery'
p53
asS'resistor'
p54
(lp55
g32
ag3
asS'fabric fusing material'
p56
(lp57
g37
asS'bag'
p58
(lp59
g48
asS'gloves'
p60
(lp61
g17
asS'epoxy'
p62
(lp63
g3
asS'neoprene'
p64
(lp65
g25
asS'carpenter kneepads'
p66
(lp67
g17
asS'garment'
p68
(lp69
S'LED Tank Top'
p70
asS'lithium cmos battery'
p71
(lp72
g3
asS'wire'
p73
(lp74
g20
ag3
asS'purse snap'
p75
(lp76
S'Soft-Circuit LED Bracelet'
p77
asS'pattern'
p78
(lp79
g9
ag53
asS'hooded sweatshirt'
p80
(lp81
S'TV-B-Gone Hoodie'
p82
asS'liquid stitch'
p83
(lp84
g70
asS'standard driver'
p85
(lp86
g14
asS'super tv-b-gone kit'
p87
(lp88
g82
asS'electrical tape'
p89
(lp90
g37
ag3
asS'crimping beads'
p91
(lp92
g70
asS'cellphone flasher'
p93
(lp94
g37
asS'muslin'
p95
(lp96
g9
asS'battery snap connector'
p97
(lp98
g14
asS'avrmega15 microcontroller'
p99
(lp100
g70
asS'thread'
p101
(lp102
g82
ag77
ag25
ag32
ag70
ag53
ag48
asS'headphones'
p103
(lp104
g25
ag17
asS'stretch fabric'
p105
(lp106
g17
asS'dc power supply'
p107
(lp108
g70
asS'embroidery needle'
p109
(lp110
g20
ag9
ag53
asS'interfacing'
p111
(lp112
g37
asS'battery'
p113
(lp114
g48
ag14
asS'tactile switch'
p115
(lp116
g9
asS'sequencer'
p117
(lp118
g14
asS'nylon webbing'
p119
(lp120
g37
asS'fabric'
p121
(lp122
g82
ag37
ag77
ag6
ag9
ag53
ag48
asS'duct tape'
p123
(lp124
g14
asS'stranded wire'
p125
(lp126
g37
asS'steel wire'
p127
(lp128
g14
asS'battery holder'
p129
(lp130
g70
ag9
ag53
ag14
asS'barbed pipe fitting'
p131
(lp132
g3
asS'lead-free solder'
p133
(lp134
g70
asS'embroidery thread'
p135
(lp136
g25
ag9
asS'sew-on snaps'
p137
(lp138
g82
ag77
ag32
asS'on/off switch'
p139
(lp140
g70
ag53
asS'fleece'
p141
(lp142
g25
ag32
asS'lilypad pro kit'
p143
(lp144
g48
asS'ruler'
p145
(lp146
g37
asS'bluetooth modem - bluesmirf silver'
p147
(lp148
S'Android-Controlled LED Light Shirt'
p149
asS'conductive velcro'
p150
(lp151
g77
ag48
asS'bliptronics led pixel'
p152
(lp153
g149
asS'small quantity of conductive thread'
p154
(lp155
g82
asS'network cable'
p156
(lp157
g14
asS'battery pack'
p158
(lp159
g17
asS'conductive thread'
p160
(lp161
g37
ag77
ag25
ag32
ag9
ag53
ag48
asS'metallic snaps'
p162
(lp163
g37
asS'carbon paper'
p164
(lp165
g53
asS'batting'
p166
(lp167
g9
asS'helmet'
p168
(lp169
g17
asS'conductive hook and loop'
p170
(lp171
g25
asS'lm1084it 5amp 5v ldo linear regulator'
p172
(lp173
g149
asS'metal snaps'
p174
(lp175
g25
asS'arduino or similar 8-bit microcontroller'
p176
(lp177
g149
asS'coin cell battery'
p178
(lp179
g77
ag20
ag53
asS'copper tape'
p180
(lp181
g14
asS'polyester fiberfill'
p182
(lp183
g32
asS'android phone'
p184
(lp185
g149
asS'avr programmer'
p186
(lp187
g70
asS'led'
p188
(lp189
g37
ag77
ag25
ag70
ag20
ag3
ag53
asS'velcro tape'
p190
(lp191
g48
asS'lightwire'
p192
(lp193
g14
asS'felt'
p194
(lp195
g77
ag6
ag20
ag9
asS'matte black tape'
p196
(lp197
g17
asS'coin cell battery holder'
p198
(lp199
g77
asS'heat-shrink tubing'
p200
(lp201
g82
ag14
asS'foamcore board'
p202
(lp203
g14
asS'insulated wire'
p204
(lp205
g82
asS'serial adapter'
p206
(lp207
g70
asS'switch'
p208
(lp209
g3
asS'nonmetallic thread'
p210
(lp211
g37
as.