(dp0
S'LED Hula Hoop'
p1
(lp2
(lp3
S'hdpe plastic tubing'
p4
aS'measuring tape'
p5
aS'barbed pipe fitting'
p6
aS'electrical tape'
p7
aS'switch'
p8
aS'lithium cmos battery'
p9
aS'resistor'
p10
aS'led'
p11
aS'wire'
p12
aS'wire'
p13
aS'epoxy'
p14
aaS'http://guide-images.makeprojects.org/igi/h5un2Q1h1YVJiQIL.standard'
p15
aS'http://makeprojects.com/Project/LED-Hula-Hoop/300/1'
p16
asS'LED Night-Light Cube'
p17
(lp18
(lp19
S'bristol board'
p20
aS'tape'
p21
aS'felt'
p22
aS'wire'
p23
aS'embroidery needle'
p24
aS'led'
p25
aS'coin cell battery'
p26
aaS'http://guide-images.makeprojects.org/igi/fTtlnKRTLvWHIteZ.standard'
p27
aS'http://makeprojects.com/Project/LED-Night-Light-Cube/258/1'
p28
asS'Rock Star Headphones'
p29
(lp30
(lp31
S'fleece'
p32
aS'neoprene'
p33
aS'conductive hook and loop'
p34
aS'conductive thread'
p35
aS'led'
p36
aS'headphones'
p37
aS'cellphone battery'
p38
aS'metal snaps'
p39
aS'thread'
p40
aS'tape'
p41
aS'embroidery thread'
p42
aaS'http://guide-images.makeprojects.org/igi/HlFNGDNY1FDOSDqG.standard'
p43
aS'http://makeprojects.com/Project/Rock-Star-Headphones/302/1'
p44
asS'TV-B-Gone Hoodie'
p45
(lp46
(lp47
S'super tv-b-gone kit'
p48
aS'hooded sweatshirt'
p49
aS'small quantity of conductive thread'
p50
aS'insulated wire'
p51
aS'thread'
p52
aS'fabric'
p53
aS'sew-on snaps'
p54
aS'heat-shrink tubing'
p55
aaS'http://guide-images.makeprojects.org/igi/6tNxbIMDrfoVAlYk.standard'
p56
aS'http://makeprojects.com/Project/TV-B-Gone-Hoodie/48/1'
p57
asS'Electronic Embroidery'
p58
(lp59
(lp60
S'pattern'
p61
aS'carbon paper'
p62
aS'fabric'
p63
aS'sternlab led sewing kit'
p64
aS'led'
p65
aS'on/off switch'
p66
aS'coin cell battery'
p67
aS'battery holder'
p68
aS'conductive thread'
p69
aS'embroidery needle'
p70
aS'thread'
p71
aaS'http://guide-images.makeprojects.org/igi/fZvpvvmUZMChrdUb.standard'
p72
aS'http://makeprojects.com/Project/Electronic-Embroidery/44/1'
p73
asS'Musical Drawdio Puppet'
p74
(lp75
(lp76
S'fleece'
p77
aS'polyester fiberfill'
p78
aS'thread'
p79
aS'conductive thread'
p80
aS'conductive fabric'
p81
aS'resistor'
p82
aS'drawdio'
p83
aS'sew-on snaps'
p84
aaS'http://guide-images.makeprojects.org/igi/gint1SRZQiC5DrEH.standard'
p85
aS'http://makeprojects.com/Project/Musical-Drawdio-Puppet/280/1'
p86
asS'Android-Controlled LED Light Shirt'
p87
(lp88
(lp89
S'arduino or similar 8-bit microcontroller'
p90
aS'bliptronics led pixel'
p91
aS'bluetooth modem - bluesmirf silver'
p92
aS'android phone'
p93
aS'lm1084it 5amp 5v ldo linear regulator'
p94
aaS'http://guide-images.makeprojects.org/igi/X565BGf3lHIeCrYr.standard'
p95
aS'http://makeprojects.com/Project/Android-Controlled-LED-Light-Shirt/1586/1'
p96
asS'Soft-Circuit LED Bracelet'
p97
(lp98
(lp99
S'felt'
p100
aS'thread'
p101
aS'fabric'
p102
aS'conductive thread'
p103
aS'conductive velcro'
p104
aS'purse snap'
p105
aS'sew-on snaps'
p106
aS'coin cell battery holder'
p107
aS'coin cell battery'
p108
aS'led'
p109
aaS'http://guide-images.makeprojects.org/igi/Qq2oQFMaDtD1Lmjc.standard'
p110
aS'http://makeprojects.com/Project/Soft-Circuit-LED-Bracelet/146/1'
p111
asS'LED Tank Top'
p112
(lp113
(lp114
S'thread'
p115
aS'led'
p116
aS'liquid stitch'
p117
aS'avrmega15 microcontroller'
p118
aS'dc power supply'
p119
aS'serial adapter'
p120
aS'battery holder'
p121
aS'on/off switch'
p122
aS'avr programmer'
p123
aS'lead-free solder'
p124
aS'crimping beads'
p125
aS'garment'
p126
aaS'http://guide-images.makeprojects.org/igi/lVf21dGBlFeKO5UW.standard'
p127
aS'http://makeprojects.com/Project/LED-Tank-Top/25/1'
p128
asS'Light-Up EL Wire Costume'
p129
(lp130
(lp131
S'el wire'
p132
aS'el wire'
p133
aS'jumpsuit'
p134
aS'carpenter kneepads'
p135
aS'helmet'
p136
aS'stretch fabric'
p137
aS'headphones'
p138
aS'gloves'
p139
aS'matte black tape'
p140
aS'battery pack'
p141
aaS'http://guide-images.makeprojects.org/igi/OpWEdhNObKYLUPDf.standard'
p142
aS'http://makeprojects.com/Project/Light-Up-EL-Wire-Costume/1392/1'
p143
asS'Emoting Puppets'
p144
(lp145
(lp146
S'muslin'
p147
aS'felt'
p148
aS'battery holder'
p149
aS'lithium 3v battery'
p150
aS'tactile switch'
p151
aS'leds'
p152
aS'fabric'
p153
aS'batting'
p154
aS'conductive thread'
p155
aS'pattern'
p156
aS'embroidery thread'
p157
aS'embroidery needle'
p158
aaS'http://guide-images.makeprojects.org/igi/sUFTKyFpwaS434mH.standard'
p159
aS'http://makeprojects.com/Project/Emoting-Puppets/1067/1'
p160
asS'Space Invaders Tote'
p161
(lp162
(lp163
S'metallic snaps'
p164
aS'fabric'
p165
aS'fabric'
p166
aS'fabric'
p167
aS'ironing board material'
p168
aS'nylon webbing'
p169
aS'interfacing'
p170
aS'metal strap carriers'
p171
aS'metallic thread'
p172
aS'nonmetallic thread'
p173
aS'fabric fusing material'
p174
aS'conductive thread'
p175
aS'electrical tape'
p176
aS'ruler'
p177
aS'cellphone flasher'
p178
aS'stranded wire'
p179
aS'led'
p180
aaS'http://guide-images.makeprojects.org/igi/mJSEJoUWK6jBv3QK.standard'
p181
aS'http://makeprojects.com/Project/Space-Invaders-Tote/1794/1'
p182
asS'Annie&#039;s Blinking El Wire Eye'
p183
(lp184
(lp185
S'lightwire'
p186
aS'standard driver'
p187
aS'sequencer'
p188
aS'heat-shrink tubing'
p189
aS'foamcore board'
p190
aS'copper tape'
p191
aS'steel wire'
p192
aS'network cable'
p193
aS'snap connector leads'
p194
aS'zip tie'
p195
aS'duct tape'
p196
aS'battery holder'
p197
aS'battery'
p198
aS'battery snap connector'
p199
aS'colored pencils'
p200
aS'paper'
p201
aaS'http://guide-images.makeprojects.org/igi/h3n36BuOcHOecyeb.standard'
p202
aS'http://makeprojects.com/Project/Annie-s-Blinking-El-Wire-Eye/166/1'
p203
asS'Arduino Blinking Bike Patch'
p204
(lp205
(lp206
S'lipower board'
p207
aS'battery'
p208
aS'conductive thread'
p209
aS'conductive velcro'
p210
aS'velcro tape'
p211
aS'bag'
p212
aS'fabric'
p213
aS'thread'
p214
aS'lilypad pro kit'
p215
aaS'http://guide-images.makeprojects.org/igi/lKc3VUuXTFPLtTDj.standard'
p216
aS'http://makeprojects.com/Project/Arduino-Blinking-Bike-Patch/79/1'
p217
asS'LED Shoe Clips'
p218
(lp219
(lp220
S'fabric'
p221
aS'felt'
p222
aS'led sewing kit'
p223
aaS'http://guide-images.makeprojects.org/igi/YcMmAoOLrHaduaeX.standard'
p224
aS'http://makeprojects.com/Project/LED-Shoe-Clips/1178/1'
p225
as.