(dp0
S'Econowave Speakers'
p1
(lp2
(lp3
S'Advent Loudspeakers'
p4
aS'Constant radiation horns'
p5
aS'Band-Aids'
p6
aS'Horn driver'
p7
aS'ZilchLab EconoWave crossover PCBs'
p8
aS'L-pad volume controls'
p9
aS'Resistor'
p10
aS'Capacitor'
p11
aS'Inductor coils'
p12
aS'Painter&rsquo;s tape'
p13
aS'Speaker wire'
p14
aS'Plywood'
p15
aS'Plastic tubing'
p16
aS'Binding post'
p17
aS'Speaker gasketing tape'
p18
aS'Sheet metal screws'
p19
aS'Wood screws'
p20
aS'Refoaming kit'
p21
aaS'http://guide-images.makeprojects.org/igi/1JlKHLA3EQsGpaAh.standard'
p22
aS'http://makeprojects.com/Project/Econowave-Speakers/181/1'
p23
asS'Mini Electric Chair'
p24
(lp25
(lp26
S'Carriage bolts'
p27
aS'Fender washer'
p28
aS'Male quick coupler'
p29
aS'Plush doll'
p30
aS'Press-in/MPT adapter'
p31
aS'Chair'
p32
aS'Prop-1 controller'
p33
aS'Audio player'
p34
aS'Enclosed speaker'
p35
aS'Thread'
p36
aS'Pneumatic control valve'
p37
aS'Pneumatic cylinder'
p38
aS'Teflon tape'
p39
aS'Wood screws'
p40
aS'Leather pet collar'
p41
aS'Zip ties'
p42
aS'Wire'
p43
aS'Hot glue'
p44
aS'Power supply'
p45
aS'Duct tape'
p46
aS"Painter's tape"
p47
aS'Wing nuts'
p48
aaS'http://guide-images.makeprojects.org/igi/ZkRZRsAksKnWBXDw.standard'
p49
aS'http://makeprojects.com/Project/Mini-Electric-Chair/323/1'
p50
asS'Lawnbot400'
p51
(lp52
(lp53
S'R/C transmitter and receiver'
p54
aS'IC chips'
p55
aS'Pieces of perf board'
p56
aS'Wire'
p57
aS'Sockets'
p58
aS'Voltage regulators'
p59
aS'Crystal oscillators'
p60
aS'SPDT switches'
p61
aS'Capacitors'
p62
aS'resistors'
p63
aS'Switches'
p64
aS'Screw terminal blocks'
p65
aS'Pin headers'
p66
aS'LEDs'
p67
aS'resistors'
p68
aS'Diode'
p69
aS'Automotive relay'
p70
aS'Fuse'
p71
aS'Transistors'
p72
aS'Transistors'
p73
aS'Resistor networks'
p74
aS'Screw terminal blocks'
p75
aS'resistors'
p76
aS'PC board'
p77
aS'Capacitors'
p78
aS'LED'
p79
aS'Resistor'
p80
aS'PC cooling fan'
p81
aS'Heatsinks'
p82
aS'Bolts'
p83
aS'Power distribution block'
p84
aS'Wheelchair motors'
p85
aS'Sprockets'
p86
aS'Bolts'
p87
aS'Roller chain'
p88
aS'Drive wheels with bearings'
p89
aS'Push mower'
p90
aS'Batteries'
p91
aS'Metal stock'
p92
aS'Metal stock'
p93
aS'Metal stock'
p94
aS'Metal stock'
p95
aS'Rod'
p96
aS'Bolts'
p97
aS'Bolts'
p98
aS'Caster wheels'
p99
aS'Scrap of plywood'
p100
aaS'http://guide-images.makeprojects.org/igi/u4h6EefCTkeLlpsv.standard'
p101
aS'http://makeprojects.com/Project/Lawnbot400/1369/1'
p102
asS'PowerFake Knob Controller'
p103
(lp104
(lp105
S'PS/2 mouse'
p106
aS'R/C car wheel and tire'
p107
aS'Project enclosure'
p108
aS'Metal rod'
p109
aS'Tape'
p110
aS'Super glue'
p111
aS'Paper'
p112
aS'Stripboard'
p113
aaS'http://guide-images.makeprojects.org/igi/DgTXQcNkJFGjhXhL.standard'
p114
aS'http://makeprojects.com/Project/PowerFake-Knob-Controller/58/1'
p115
asS'MoofTronic Mini Synth'
p116
(lp117
(lp118
S'Resistor'
p119
aS'Voltage regulator'
p120
aS'Picaxe-08M 8-pin microcontroller'
p121
aS'IC socket'
p122
aS'Battery'
p123
aS'Battery clip'
p124
aS'Mini speaker'
p125
aS'Stereo jack'
p126
aS'Insulated wire'
p127
aS'Heat-shrink tubing'
p128
aS'Cable ties'
p129
aS'Picaxe serial programming cable'
p130
aaS'http://guide-images.makeprojects.org/igi/23aNCAMwM3UkDrcp.standard'
p131
aS'http://makeprojects.com/Project/MoofTronic-Mini-Synth/29/1'
p132
asS'Technique:Removing Goo and Stickers'
p133
(lp134
(lp135
aS'http://guide-images.makeprojects.org/igi/hUfYvdJPWf4ACAJJ.standard'
p136
aS'http://makeprojects.com/Project/Removing-Goo-and-Stickers/901/1'
p137
asS'Nook Tablet Android Hack'
p138
(lp139
(lp140
S'Nook Tablet'
p141
aaS'http://guide-images.makeprojects.org/igi/nYFDVQViSnUVXnSN.standard'
p142
aS'http://makeprojects.com/Project/Nook-Tablet-Android-Hack/1904/1'
p143
asS'Technique:Notifying doorbell'
p144
(lp145
(lp146
S'Arduino or clone'
p147
aaS'http://guide-images.makeprojects.org/igi/hIqVNtJDQpiQh4Wc.standard'
p148
aS'http://makeprojects.com/Project/Notifying-doorbell/2165/1'
p149
asS'Annie&#039;s Blinking El Wire Eye'
p150
(lp151
(lp152
S'Lightwire'
p153
aS'Standard driver'
p154
aS'Sequencer'
p155
aS'Heat-shrink tubing'
p156
aS'Foamcore board'
p157
aS'Copper tape'
p158
aS'Steel wire'
p159
aS'Network cable'
p160
aS'Snap connector leads'
p161
aS'Zip tie'
p162
aS'Duct tape'
p163
aS'Battery holder'
p164
aS'Battery'
p165
aS'Battery snap connector'
p166
aS'Colored pencils'
p167
aS'Paper'
p168
aaS'http://guide-images.makeprojects.org/igi/h3n36BuOcHOecyeb.standard'
p169
aS'http://makeprojects.com/Project/Annie-s-Blinking-El-Wire-Eye/166/1'
p170
asS'LED Throwies'
p171
(lp172
(lp173
S'LED'
p174
aS'Tape'
p175
aS'Batteries'
p176
aS'Disc magnet'
p177
aS'Epoxy'
p178
aaS'http://guide-images.makeprojects.org/igi/sUCsUxYbGuaAApRd.standard'
p179
aS'http://makeprojects.com/Project/LED-Throwies/1218/1'
p180
asS'Super-Bright MR16 LED Kit'
p181
(lp182
(lp183
S'MR16 LED Kit'
p184
aaS'http://guide-images.makeprojects.org/igi/WN1ogC2gFHGbibtJ.standard'
p185
aS'http://makeprojects.com/Project/Super-Bright-MR16-LED-Kit/1820/1'
p186
asS'Peak 97, a Climbing Game'
p187
(lp188
(lp189
aS'http://guide-images.makeprojects.org/igi/aDILprBwQ2IFWb4y.standard'
p190
aS'http://makeprojects.com/Project/Peak-97-a-Climbing-Game/1210/1'
p191
asS'Cord Curling'
p192
(lp193
(lp194
S'Duct tape'
p195
aS'Aluminum foil'
p196
aS'Water'
p197
aS'Cord to be coiled'
p198
aaS'http://guide-images.makeprojects.org/igi/i6wXxLcxS2b3lWjY.standard'
p199
aS'http://makeprojects.com/Project/Cord-Curling/389/1'
p200
asS'USB Card Reader from a Dumped USB Printer'
p201
(lp202
(lp203
aS'http://guide-images.makeprojects.org/igi/tlYIyTH5cdG33rCY.standard'
p204
aS'http://makeprojects.com/Project/USB-Card-Reader-from-a-Dumped-USB-Printer/641/1'
p205
asS'Arduino Drum Pad &amp; Game'
p206
(lp207
(lp208
S'Mousepad'
p209
aS'Junk CD/DVD'
p210
aS'Hook-up wire'
p211
aS'3.9k resistor'
p212
aS'Piezo Sensor'
p213
aS'Packing foam'
p214
aS'Solderless breadboard'
p215
aS'Drumsticks'
p216
aaS'http://guide-images.makeprojects.org/igi/t1gTstAufKdEXVMK.standard'
p217
aS'http://makeprojects.com/Project/Arduino-Drum-Pad-Game/559/1'
p218
asS'Technique:Mr. B&#039;s Lab: How To Solder'
p219
(lp220
(lp221
S'Project enclosure/ parts'
p222
aaS'http://guide-images.makeprojects.org/igi/RbchSutxkHKJAyxQ.standard'
p223
aS'http://makeprojects.com/Project/Mr-B-s-Lab-How-To-Solder/1734/1'
p224
asS'SIM Card Reader/Writer Kit'
p225
(lp226
(lp227
S'Printed Circuit Board'
p228
aS'SIM Card Holder'
p229
aS'3.579545 MHz (&quot;colorburst&quot;) crystal'
p230
aS'DB-9 female connector w/solder cup'
p231
aS'CMOS Hex inverter'
p232
aS'7805 (TO-220 package) or 78L05 (TO-92)  5V regulator'
p233
aS'NPN transistor, EBC pinout'
p234
aS'0.1uF ceramic capacitor'
p235
aS'18-22pF ceramic capacitor'
p236
aS'100uF/6.3V capacitor'
p237
aS'Green or Red 3mm LED'
p238
aS'Power diode'
p239
aS'5.1V Zener diode'
p240
aS'1/4W 5% 1Meg resistor'
p241
aS'1/4W 5% 1.0K resistor'
p242
aS'1/4W 5% 10K resistor'
p243
aS'9V battery clip'
p244
aS'6 pin header'
p245
aaS'http://guide-images.makeprojects.org/igi/ltRRwXbESwurchnm.standard'
p246
aS'http://makeprojects.com/Project/SIM-Card-Reader-Writer-Kit/1084/1'
p247
asS'Arduino BiCMOS Curve Tracer'
p248
(lp249
(lp250
aS'http://guide-images.makeprojects.org/igi/DgBjfGNOBIEoPIVk.standard'
p251
aS'http://makeprojects.com/Project/Arduino-BiCMOS-Curve-Tracer/1427/1'
p252
asS'LED Yo-Yo Side Caps'
p253
(lp254
(lp255
aS'http://guide-images.makeprojects.org/igi/ZChryZKvFlwshPGJ.standard'
p256
aS'http://makeprojects.com/Project/LED-Yo-Yo-Side-Caps/6/1'
p257
asS'Rock Star Headphones'
p258
(lp259
(lp260
S'Fleece'
p261
aS'Neoprene'
p262
aS'Conductive hook and loop'
p263
aS'Conductive thread'
p264
aS'LED'
p265
aS'Headphones'
p266
aS'Cellphone battery'
p267
aS'Metal snaps'
p268
aS'Thread'
p269
aS'Tape'
p270
aS'Embroidery thread'
p271
aaS'http://guide-images.makeprojects.org/igi/HlFNGDNY1FDOSDqG.standard'
p272
aS'http://makeprojects.com/Project/Rock-Star-Headphones/302/1'
p273
asS'Technique:Get an Ultra-Slim USB Stick DeadDrop Ready'
p274
(lp275
(lp276
S'Slim USB Stick'
p277
aaS'http://guide-images.makeprojects.org/igi/bvEDeQVQOg4NETgS.standard'
p278
aS'http://makeprojects.com/Project/Get-an-Ultra-Slim-USB-Stick-DeadDrop-Ready/1181/1'
p279
asS'One-Ton Linear Servo'
p280
(lp281
(lp282
S'Scissor jack'
p283
aS'Servo'
p284
aS'Servo controller'
p285
aS'Potentiometer'
p286
aS'Relays'
p287
aS'Transistors'
p288
aS'Resitstors'
p289
aS'Capacitors'
p290
aS'Trimpots'
p291
aS'LEDs'
p292
aS'resistors'
p293
aS'Hookup wire'
p294
aS'Protoboard'
p295
aS'Masking tape'
p296
aS'String'
p297
aS'Washer'
p298
aS'Wood'
p299
aS'Spring or big rubber band'
p300
aS'Weight'
p301
aS'Screw eyes'
p302
aaS'http://guide-images.makeprojects.org/igi/cukTMbRru5pnkPtG.standard'
p303
aS'http://makeprojects.com/Project/One-Ton-Linear-Servo/882/1'
p304
asS'Simple Scanner Camera'
p305
(lp306
(lp307
S'Canon CanoScan'
p308
aS'Foamcore board'
p309
aS'Cardboard'
p310
aS'Heavy cardstock'
p311
aS'Tracing paper'
p312
aS'Duct tape'
p313
aS'Magnifying glass'
p314
aS'Glue'
p315
aS'Ruler'
p316
aS'Hobby knife'
p317
aaS'http://guide-images.makeprojects.org/igi/KfaHupdQpPZl35Jj.standard'
p318
aS'http://makeprojects.com/Project/Simple-Scanner-Camera/221/1'
p319
asS'Paint a Glitter Guitar'
p320
(lp321
(lp322
S'Krylon Glitter Blast Glitter Spray'
p323
aS'Krylon Glitter Blast Clear Sealer'
p324
aS"Painter's tape"
p325
aS'Sandpaper'
p326
aS'Dropcloth'
p327
aaS'http://guide-images.makeprojects.org/igi/RYiaD5eKopwjQKgW.standard'
p328
aS'http://makeprojects.com/Project/Paint-a-Glitter-Guitar/1196/1'
p329
asS'Robot Drummer (of Wahappen rock and roll band)'
p330
(lp331
(lp332
aS'http://guide-images.makeprojects.org/igi/k1FMSpsatXVAXfNW.standard'
p333
aS'http://makeprojects.com/Project/Robot-Drummer-of-Wahappen-rock-and-roll-band-/800/1'
p334
asS'Arduino Powered Brain Machine'
p335
(lp336
(lp337
S'Safety glasses'
p338
aS'9V battery'
p339
aS'Arduino microcontroller'
p340
aS'5mm Red LEDs'
p341
aS'Wire, hookup, 22 gauge stranded'
p342
aS'9v battery snap to arduino connecter'
p343
aS'Tape'
p344
aS'Zip tie'
p345
aS'9v battery snap (optional)'
p346
aS"Headphones, 1/8&quot; plug, mono or stereo (optional; if you're using the brain booster)"
p347
aaS'http://guide-images.makeprojects.org/igi/VJa5EHs2GaFOHTZg.standard'
p348
aS'http://makeprojects.com/Project/Arduino-Powered-Brain-Machine/1803/1'
p349
asS'Adding Auto-Fire to a Computer Mouse (555 timer)'
p350
(lp351
(lp352
S'555 timer IC chip'
p353
aS'Electrolytic capacitor 20&mu;F'
p354
aS'Resistor 1K&Omega;'
p355
aS'Resistor 10K&Omega;'
p356
aS'Push button'
p357
aaS'http://guide-images.makeprojects.org/igi/MAWacJSEJKyKpNEC.standard'
p358
aS'http://makeprojects.com/Project/Adding-Auto-Fire-to-a-Computer-Mouse-555-timer-/487/1'
p359
asS'The BeatBox'
p360
(lp361
(lp362
S'Small breadboard (RS : 276-003)'
p363
aS'Arduino microcontroller'
p364
aS'1/4W 5% 1Meg resistor'
p365
aS'Hookup wire, 22 gauge, multiple colors'
p366
aS'Piezo Element'
p367
aaS'http://guide-images.makeprojects.org/igi/DK5tTSPkn5wBfOZM.standard'
p368
aS'http://makeprojects.com/Project/The-BeatBox/1906/1'
p369
asS'Gyrocar'
p370
(lp371
(lp372
S'Plywood'
p373
aS'Toy gyroscope'
p374
aS'DC electric motor'
p375
aS'Battery'
p376
aS'Battery'
p377
aS'Plastic cap'
p378
aS'Machine screw'
p379
aS'Machine screw'
p380
aS'Tension roller'
p381
aS'Sheet steel'
p382
aS'Wood screws'
p383
aS'Wood glue'
p384
aS'Switch'
p385
aS'Rod'
p386
aaS'http://guide-images.makeprojects.org/igi/bLttD6c66d4JiULd.standard'
p387
aS'http://makeprojects.com/Project/Gyrocar/88/1'
p388
asS'Lunchbox Laser Shows'
p389
(lp390
(lp391
S'Lunchbox'
p392
aS'Plywood'
p393
aS'Metal flat or angle stock'
p394
aS'Power supply'
p395
aS'Laser module'
p396
aS'Diode'
p397
aS'Pipe hanger strap'
p398
aS'Pipe hangers'
p399
aS'Sheet metal screws'
p400
aS'Paint'
p401
aS'Heat sinks'
p402
aS'Plastic model cement'
p403
aS'Capacitors'
p404
aS'Voltage regulator'
p405
aS'Resistor'
p406
aS'Potentiometer'
p407
aS'Hookup wire'
p408
aS'Perf board'
p409
aS'Transparent disc'
p410
aS'Mirror'
p411
aS'Washer'
p412
aS'Gearmotor'
p413
aS'Transmissive diffraction grating'
p414
aS'Reflective diffraction grating'
p415
aS'Plexiglass'
p416
aS'Scrap of plastic'
p417
aS'Spacer'
p418
aS'Speakers'
p419
aS'Mirrors'
p420
aS'Sheet cork'
p421
aS'Rubber membrane'
p422
aS'Silicone adhesive and 5-minute epoxy'
p423
aS'Power jack'
p424
aS'RCA jacks'
p425
aaS'http://guide-images.makeprojects.org/igi/cupx5jLVBh1T5cwf.standard'
p426
aS'http://makeprojects.com/Project/Lunchbox-Laser-Shows/908/1'
p427
asS'DIY Lanyard for USB Flash Drives'
p428
(lp429
(lp430
S'Shoelace or bootlace, at least 36&quot; long, any color'
p431
aS'20 lb. fishing line or heavy duty thread'
p432
aS'1/2&quot; Heat-shrink tubing, 3/4&quot; long -or- a small piece of duct tape.'
p433
aaS'http://guide-images.makeprojects.org/igi/fxejGKZMsd1fCtya.standard'
p434
aS'http://makeprojects.com/Project/DIY-Lanyard-for-USB-Flash-Drives/2169/1'
p435
asS'Drumbots'
p436
(lp437
(lp438
S'Highly Liquid MSA-R MIDI decoder kit'
p439
aS'Dual-lead wire'
p440
aS'Solenoids'
p441
aS'Power supply'
p442
aS'Paper clip'
p443
aS'Dowel'
p444
aS'Pipe strapping'
p445
aS'MIDI jack'
p446
aaS'http://guide-images.makeprojects.org/igi/nBtPWoOp2ZUOSN3o.standard'
p447
aS'http://makeprojects.com/Project/Drumbots/30/1'
p448
asS'Build the Gakken Mini Guitar'
p449
(lp450
(lp451
S'Gakken Mini Electric Guitar kit'
p452
aS'Battery'
p453
aaS'http://guide-images.makeprojects.org/igi/vTHIpNpLEraSpFqp.standard'
p454
aS'http://makeprojects.com/Project/Build-the-Gakken-Mini-Guitar/76/1'
p455
asS'Create a P2P Network'
p456
(lp457
(lp458
S'Computer with an Ethernet port'
p459
aS'Crossover LAN Cable'
p460
aaS'http://guide-images.makeprojects.org/igi/hPxPacpuFfX6IIgJ.standard'
p461
aS'http://makeprojects.com/Project/Create-a-P2P-Network/1289/1'
p462
asS'Floating Glow Display'
p463
(lp464
(lp465
S'Polyester sheet'
p466
aS'Aluminum tape'
p467
aS'High-Brightness red LED'
p468
aS'Coin cell battery holder'
p469
aS'Solder, lead-free'
p470
aS'CR2032 coin cell battery'
p471
aaS'http://guide-images.makeprojects.org/igi/YUsQEdDM3pRQoUui.standard'
p472
aS'http://makeprojects.com/Project/Floating-Glow-Display/968/1'
p473
asS'World&#039;s Smallest Color Organ'
p474
(lp475
(lp476
aS'http://guide-images.makeprojects.org/igi/2LYmpR5LXW3SRGkp.standard'
p477
aS'http://makeprojects.com/Project/World-s-Smallest-Color-Organ/1914/1'
p478
asS'Simple Bass Amp Stand'
p479
(lp480
(lp481
S'A4-size wood'
p482
aS'Wooden dowel'
p483
aaS'http://guide-images.makeprojects.org/igi/vmiLKKbBknUSJYqR.standard'
p484
aS'http://makeprojects.com/Project/Simple-Bass-Amp-Stand/1994/1'
p485
asS'Technique:Don&#039;t Waste eWaste: UnMaking a Canon Printer/Scanner/Fax into Parts'
p486
(lp487
(lp488
aS'http://guide-images.makeprojects.org/igi/CTG1K1uTljF3OPve.standard'
p489
aS'http://makeprojects.com/Project/Don-t-Waste-eWaste-UnMaking-a-Canon-Printer-Scanner-Fax-into-Parts/1285/1'
p490
asS'Arduino in C: See Your Microcontroller in a New Way'
p491
(lp492
(lp493
S'Arduino microcontroller'
p494
aaS'http://guide-images.makeprojects.org/igi/XfFKJpGRGtlYumIo.standard'
p495
aS'http://makeprojects.com/Project/Arduino-in-C-See-Your-Microcontroller-in-a-New-Way/965/1'
p496
asS'SketchUp 101'
p497
(lp498
(lp499
aS'http://guide-images.makeprojects.org/igi/MNl4MDHDrLeE4KOk.standard'
p500
aS'http://makeprojects.com/Project/SketchUp-101/897/1'
p501
asS'4-Foot Wooden Digital Clock'
p502
(lp503
(lp504
aS'http://guide-images.makeprojects.org/igi/XdCWhrCjKHheUuLx.standard'
p505
aS'http://makeprojects.com/Project/4-Foot-Wooden-Digital-Clock/1398/1'
p506
asS'Wireless Altoids Tin Mouse (aka Minty Mouse)'
p507
(lp508
(lp509
S'logitech m185 wireless mouse'
p510
aS'altoids tin'
p511
aS'small plastic scraps'
p512
aS'optional: electrical tape'
p513
aaS'http://guide-images.makeprojects.org/igi/qQDXThYDoklFQ6fr.standard'
p514
aS'http://makeprojects.com/Project/Wireless-Altoids-Tin-Mouse-aka-Minty-Mouse-/1208/1'
p515
asS'LED Night-Light Cube'
p516
(lp517
(lp518
S'Bristol board'
p519
aS'Tape'
p520
aS'Felt'
p521
aS'Wire'
p522
aS'Embroidery needle'
p523
aS'LED'
p524
aS'Coin cell battery'
p525
aaS'http://guide-images.makeprojects.org/igi/fTtlnKRTLvWHIteZ.standard'
p526
aS'http://makeprojects.com/Project/LED-Night-Light-Cube/258/1'
p527
asS'LED Starry Sky'
p528
(lp529
(lp530
aS'http://guide-images.makeprojects.org/igi/wVSyJ5ZSQKRAfAXc.standard'
p531
aS'http://makeprojects.com/Project/LED-Starry-Sky/1272/1'
p532
asS'Dance Dance Roverbot!'
p533
(lp534
(lp535
aS'http://guide-images.makeprojects.org/igi/Knn3ipXcJEGecmf5.standard'
p536
aS'http://makeprojects.com/Project/Dance-Dance-Roverbot-/1876/1'
p537
asS'Flash Memory Hard Disc'
p538
(lp539
(lp540
S'Hard disk drive'
p541
aS'USB hub'
p542
aS'USB flash drives'
p543
aS'USB cables'
p544
aS'Tape'
p545
aaS'http://guide-images.makeprojects.org/igi/mFfZC3ppGPkEnDNm.standard'
p546
aS'http://makeprojects.com/Project/Flash-Memory-Hard-Disc/1253/1'
p547
asS'RGB LED Lamp'
p548
(lp549
(lp550
aS'http://guide-images.makeprojects.org/igi/OEDenRoNmnkQVgKi.standard'
p551
aS'http://makeprojects.com/Project/RGB-LED-Lamp/1144/1'
p552
asS'Circuit Skills: Surface Mount Devices'
p553
(lp554
(lp555
S'SMD Experimenters Bundle'
p556
aaS'http://guide-images.makeprojects.org/igi/R2vbmdDaLVDTvPKe.standard'
p557
aS'http://makeprojects.com/Project/Circuit-Skills-Surface-Mount-Devices/650/1'
p558
asS'Solar Xylophone'
p559
(lp560
(lp561
S'Xylophone'
p562
aS'Mallets'
p563
aS'Voltage triggers'
p564
aS'Transistor'
p565
aS'Measuring tape'
p566
aS'Potentiometer'
p567
aS'Electrolytic capacitor'
p568
aS'Monolithic capacitors'
p569
aS'Silicon diodes'
p570
aS'Solar cell'
p571
aS'Geared pager motors'
p572
aS'Dual mini perf boards'
p573
aS'Paper clip'
p574
aS'Finishing nails'
p575
aS'Wire'
p576
aS'Plumbing solder'
p577
aS'Hot glue'
p578
aS'Wood glue'
p579
aS'Plywood'
p580
aS'Wood'
p581
aS'Wood plank'
p582
aS'Wood plank'
p583
aS'Female connector headers'
p584
aS'Male wire connection headers'
p585
aaS'http://guide-images.makeprojects.org/igi/QZpspraXCLiMMFT6.standard'
p586
aS'http://makeprojects.com/Project/Solar-Xylophone/55/1'
p587
asS'Technique:How to Install the Arduino IDE for Windows'
p588
(lp589
(lp590
S'Arduino'
p591
aS'USB A to B cable'
p592
aS'LED'
p593
aaS'http://guide-images.makeprojects.org/igi/sCXSdHW5FTPfREOF.standard'
p594
aS'http://makeprojects.com/Project/How-to-Install-the-Arduino-IDE-for-Windows/1827/1'
p595
asS'XBee Pulse I/O PCB Assembly Instructions'
p596
(lp597
(lp598
aS'http://guide-images.makeprojects.org/igi/wYSIhfydoyJcUqU3.standard'
p599
aS'http://makeprojects.com/Project/XBee-Pulse-I-O-PCB-Assembly-Instructions/2067/1'
p600
asS'Circuit Skills:     LED Color Organ'
p601
(lp602
(lp603
S'Color organ parts kit'
p604
aaS'http://guide-images.makeprojects.org/igi/poRr6Pq1uKBrvAr1.standard'
p605
aS'http://makeprojects.com/Project/Circuit-Skills-LED-Color-Organ/647/1'
p606
asS'Audio-Enhanced Touch Sensors to Help the Visually Impaired'
p607
(lp608
(lp609
S'32 awg copper laminated wire'
p610
aS'Arduino Uno'
p611
aS'USB shield for Arduino'
p612
aS'XKitz touch sensor boards'
p613
aS'Blue-tack'
p614
aS'Android phone'
p615
aS'Stackable header pins'
p616
aS'Micro USB Cable'
p617
aS'Resistors, 1k'
p618
aS'0.1&quot; header pins (strip of 8 for each XKitz board)'
p619
aS'0.1&quot; sockets (strip of 8 for each XKitz board)'
p620
aaS'http://guide-images.makeprojects.org/igi/6xvRAZXYOyVZD4ep.standard'
p621
aS'http://makeprojects.com/Project/Audio-Enhanced-Touch-Sensors-to-Help-the-Visually-Impaired/2017/1'
p622
asS'Dummy Camera'
p623
(lp624
(lp625
S'Resistor'
p626
aS'Resistor'
p627
aS'Perf board'
p628
aS'555 timer'
p629
aS'Pin socket'
p630
aS'Capacitor'
p631
aS'LED'
p632
aS'Resistor'
p633
aS'Screw terminals'
p634
aS'Wires'
p635
aS'Battery'
p636
aS'Battery holder'
p637
aaS'http://guide-images.makeprojects.org/igi/kpjBenF1LrQ4QyNn.standard'
p638
aS'http://makeprojects.com/Project/Dummy-Camera/170/1'
p639
asS'Get Started with Arduino Clones'
p640
(lp641
(lp642
S'9 Volt alkaline battery'
p643
aS'9 volt battery snap connector'
p644
aS'Arduino clone'
p645
aS'7805 Voltage Regulator'
p646
aS'Mini breadboard'
p647
aS'LED'
p648
aS'insulated wrapping wire'
p649
aS'25 pin female solderable DSUB'
p650
aS'misc resistors'
p651
aS'Female connector header'
p652
aS'ATMega328'
p653
aaS'http://guide-images.makeprojects.org/igi/P3FooM4cYdMOKsrL.standard'
p654
aS'http://makeprojects.com/Project/Get-Started-with-Arduino-Clones/635/1'
p655
asS'TV-B-Gone Hat'
p656
(lp657
(lp658
S'TV-B-Gone Kit'
p659
aS'Baseball cap'
p660
aS'Tactile switch'
p661
aS'Thread'
p662
aS'Heat-shrink tubing'
p663
aS'Heat-shrink tubing'
p664
aS'Wire'
p665
aS'Permanent marker'
p666
aS'Battery'
p667
aaS'http://guide-images.makeprojects.org/igi/IyfsKCoQhuhsbOmY.standard'
p668
aS'http://makeprojects.com/Project/TV-B-Gone-Hat/60/1'
p669
asS'Arduino and Python: Learn Serial Programming'
p670
(lp671
(lp672
S'Arduino microcontroller'
p673
aS'LED'
p674
aS'16x2 LCD'
p675
aS'Speaker'
p676
aS'22 awg wire'
p677
aS'Speaker wire'
p678
aaS'http://guide-images.makeprojects.org/igi/FmgSB4AWR4MakAvE.standard'
p679
aS'http://makeprojects.com/Project/Arduino-and-Python-Learn-Serial-Programming/667/1'
p680
asS'Easy Home Control Via Web Chat'
p681
(lp682
(lp683
S'Computers'
p684
aS'Webcam'
p685
aS'Wrapping wire'
p686
aS'RadioShack #278-503'
p687
aS'Transistors'
p688
aS'Breadboard'
p689
aS'Devices'
p690
aS'Power supplies'
p691
aS'Tape'
p692
aS'Box'
p693
aS'Dark surface'
p694
aS'Flashlight'
p695
aaS'http://guide-images.makeprojects.org/igi/DRPSoO51l1X2CMgw.standard'
p696
aS'http://makeprojects.com/Project/Easy-Home-Control-Via-Web-Chat/1449/1'
p697
asS'Lanterns-a-Go-Go'
p698
(lp699
(lp700
S'Pagoda lanterns'
p701
aS'R/C Car Battery Pack and Connector Repair Kit'
p702
aS'Connecting wire'
p703
aS'Butt splice crimp connectors'
p704
aaS'http://guide-images.makeprojects.org/igi/fMK3e6IFtAfT5OVX.standard'
p705
aS'http://makeprojects.com/Project/Lanterns-a-Go-Go/350/1'
p706
asS'The Flame Tube'
p707
(lp708
(lp709
S'Plastic tubing fittings, 3/8&quot; OD, push-to-connect (PTC)'
p710
aS'Plastic tubing fittings, 3/8&quot; OD, push-to-connect (PTC)'
p711
aS'Plastic tubing fittings, 3/8&quot; OD'
p712
aS'Propane tank'
p713
aS'Gas regulator'
p714
aS'Pipe flashing boot'
p715
aS'Amplifier and loudspeaker'
p716
aS'Plastic tubing'
p717
aS'Steel conduit'
p718
aS'Rubber balloons'
p719
aS'Rubber bands and/or strong tape'
p720
aS'Frequency generator and/or music sources'
p721
aS'Dimensional lumber'
p722
aS'Dimensional lumber'
p723
aS'Deck screws'
p724
aaS'http://guide-images.makeprojects.org/igi/D4FHvZFXA1hADKlN.standard'
p725
aS'http://makeprojects.com/Project/The-Flame-Tube/706/1'
p726
asS'Automatic Garage Door Opener'
p727
(lp728
(lp729
aS'http://guide-images.makeprojects.org/igi/MN1eQyUxyjDRQe2k.standard'
p730
aS'http://makeprojects.com/Project/Automatic-Garage-Door-Opener/754/1'
p731
asS'Jailbreak an iPod Touch or iPhone'
p732
(lp733
(lp734
S'Ipod touch or Iphone'
p735
aS'Ipod USB cord adapter'
p736
aaS'http://guide-images.makeprojects.org/igi/Rcnf4r3fKjPlFHuo.standard'
p737
aS'http://makeprojects.com/Project/Jailbreak-an-iPod-Touch-or-iPhone/430/1'
p738
asS'Belvedere - A Butler Robot'
p739
(lp740
(lp741
S'iRobot Create Platform'
p742
aS'Sparkfun 16x2 LCD'
p743
aS'Adafruit Waveshield to store and play voice and music clips'
p744
aS'HMC6352 compass module from Sparkfun'
p745
aS'Custom LM386 amplifier board for speaker'
p746
aS'Maxbotix Maxsonar EZ1 Ultrasonic Sensors'
p747
aS'Sharp GP2D12 Analog IR Distance Sensors'
p748
aS'3 inch speaker'
p749
aS'Servo'
p750
aS'Various electronic components'
p751
aS'Custom circuit boards for power and signal distribution'
p752
aaS'http://guide-images.makeprojects.org/igi/j2RYbPQixkPQntr6.standard'
p753
aS'http://makeprojects.com/Project/Belvedere-A-Butler-Robot/823/1'
p754
asS'Anti-Robber Pressure Pad'
p755
(lp756
(lp757
S'Strip of Copper'
p758
aS'9V Battery Holder'
p759
aS'Wire'
p760
aS'Thick double-sided tape'
p761
aS'Black Card'
p762
aS'Tape'
p763
aS'9 Volt alkaline battery'
p764
aS'Beeper/Buzzer'
p765
aaS'http://guide-images.makeprojects.org/igi/SVFkbhwgbSpg3VDk.standard'
p766
aS'http://makeprojects.com/Project/Anti-Robber-Pressure-Pad/613/1'
p767
asS'Using the MakerShield Button'
p768
(lp769
(lp770
S'MakerShield'
p771
aS'Arduino Uno'
p772
aS'Mini breadboard'
p773
aS'Jumper Wire'
p774
aS'1/4W 10k ohm resistor'
p775
aaS'http://guide-images.makeprojects.org/igi/APY3crZKjFsVdtov.standard'
p776
aS'http://makeprojects.com/Project/Using-the-MakerShield-Button/2070/1'
p777
asS'Arduino Survival Tin'
p778
(lp779
(lp780
S'Arduino microcontroller, Uno or Duemilanove'
p781
aS'Servo (generic), feather servos are good'
p782
aS'tin; tobacco tins have their uses'
p783
aS'micro speaker'
p784
aS'led bundle,include led displays'
p785
aS'Piezo Element'
p786
aS'Memsic 2125 Dual-Axis accelorometer'
p787
aS'switch bundle'
p788
aS'Arduino programming cable.'
p789
aS'bundle of infrared devices,include a Parallax PIR'
p790
aS'Bundle of jumper leads.'
p791
aS"transistor bundle,MOSFET's as well"
p792
aS'micro motor'
p793
aS"resistor bundle,include potentiometers and LDR's"
p794
aS'Mini breadboard'
p795
aaS'http://guide-images.makeprojects.org/igi/4piMR1RVAcAXmIry.standard'
p796
aS'http://makeprojects.com/Project/Arduino-Survival-Tin/1910/1'
p797
asS'Fun with Regulators'
p798
(lp799
(lp800
aS'http://guide-images.makeprojects.org/igi/yFEvHmRf2YkwdYIH.standard'
p801
aS'http://makeprojects.com/Project/Fun-with-Regulators/1977/1'
p802
asS'Electronic Drum Kit'
p803
(lp804
(lp805
S'Vinyl tubing'
p806
aS'Polyethylene tubing'
p807
aS'Heat-shrink tubing'
p808
aS'Foil tape'
p809
aS'Bottle stoppers'
p810
aS'Lag screws'
p811
aS'Guitar strings'
p812
aS'Guitar tuning pegs'
p813
aS'insulated wrapping wire'
p814
aS'Serial extension cables'
p815
aS'Cable ties'
p816
aS'Foam pipe insulation'
p817
aS'PVC pipe'
p818
aS'Wood'
p819
aS'Bolts'
p820
aS'Zoom MRT-3B Micro RhythmTrak drum machine'
p821
aS'Dual general-purpose IC PC board'
p822
aS'CD4066 quad CMOS switch'
p823
aS'Socket'
p824
aS'Project enclosure'
p825
aS'Momentary push-button switch'
p826
aS'Resistor'
p827
aS'Capacitor'
p828
aS'Silicone sealer'
p829
aaS'http://guide-images.makeprojects.org/igi/eV2xwMVXeBHD5jZn.standard'
p830
aS'http://makeprojects.com/Project/Electronic-Drum-Kit/31/1'
p831
asS'XBee Pulse I/O Breadboard or Perfboard Assembly Instructions'
p832
(lp833
(lp834
S'7.5-9v DC Brick Power Supply'
p835
aS'XBee Pulse I/O Electrical Components (for Breadboard Prototype)'
p836
aS'Solderless Breadboard Mouser, Radio Shack or other'
p837
aS'Breadboard jumper wires, or solid core 22AWG wire'
p838
aS'XBee Series 2 Wireless Module'
p839
aS'Breakout Board for XBee Module'
p840
aS'2mm 10pin XBee Socket'
p841
aS'Break Away Headers - Straight'
p842
aS'DC Barrel Jack Adapter - Female'
p843
aaS'http://guide-images.makeprojects.org/igi/nJDMgavMHPiS3a2C.standard'
p844
aS'http://makeprojects.com/Project/XBee-Pulse-I-O-Breadboard-or-Perfboard-Assembly-Instructions/1871/1'
p845
asS'My Robot, Makey'
p846
(lp847
(lp848
S'Aluminum sheet'
p849
aS'Micro Aileron System'
p850
aS'Battery'
p851
aS'Battery snap connector'
p852
aS'Jumper wires'
p853
aS'Du-Bro mini E/Z connectors'
p854
aS'Electrical Tape'
p855
aS'Paint'
p856
aS'Arduino microcontroller'
p857
aS'Dual motor driver board'
p858
aS'Cellophane tape'
p859
aS'ProtoShield kit'
p860
aS'Plastic'
p861
aS'Lego tires'
p862
aS'Heat-shrink tubing'
p863
aS'Machine screw'
p864
aS'Sheet metal screws'
p865
aS'Nut'
p866
aS'Lock washers'
p867
aS'Pop rivets'
p868
aS'On/off switch'
p869
aS'Servo extension wire'
p870
aS'Male header'
p871
aS'Servomotor'
p872
aS'Capacitor'
p873
aS'Resistor'
p874
aS'Metal ball caster'
p875
aS'Battery holder clips'
p876
aS'Wire'
p877
aS'Wood'
p878
aS'Gearmotor mount'
p879
aS'Mini breadboard'
p880
aS'Drive motors'
p881
aS'Ping rangefinder'
p882
aaS'http://guide-images.makeprojects.org/igi/mDqW41wCddRgQ1Nh.standard'
p883
aS'http://makeprojects.com/Project/My-Robot-Makey/51/1'
p884
asS'Earthquake Detector'
p885
(lp886
(lp887
S'plastic board'
p888
aS'crooked plastic lever'
p889
aS'bearing'
p890
aS'Washers'
p891
aaS'http://guide-images.makeprojects.org/igi/baKdMbGuooiMU2X1.standard'
p892
aS'http://makeprojects.com/Project/Earthquake-Detector/488/1'
p893
asS'A Simple Trip Wire'
p894
(lp895
(lp896
S'AA Battery Holder'
p897
aS'AA Battery'
p898
aS'Beeper/Buzzer'
p899
aS'Cable'
p900
aS'Copper pins'
p901
aS'Photo frame hook'
p902
aaS'http://guide-images.makeprojects.org/igi/SRZiUGomVxBjMPYe.standard'
p903
aS'http://makeprojects.com/Project/A-Simple-Trip-Wire/621/1'
p904
asS'Teleclaw: Remote Robot Gripper'
p905
(lp906
(lp907
S'MAKE Telerobotic Gripper Kit'
p908
aS'Clamp, ratcheting plastic, about 5&quot; long, with jaws that  open at least 1&frac14;&quot;'
p909
aS'Servomotor, radio-controlled (R/C), standard size  (roughly 40mm&times;20mm&times;38mm), with double-arm horn'
p910
aS'Picaxe 08M microcontroller'
p911
aS'Infrared remote control'
p912
aS'Infrared receiver/demodulator, 38kHz'
p913
aS'Gripper bracket'
p914
aS'Stiff wire'
p915
aS'Solderless breadboard, half-size'
p916
aS'Hookup wire, solid core'
p917
aS'Stereo audio jack, 3.5mm'
p918
aS'resistors'
p919
aS'Capacitors, electrolytic, 15V or greater: 4.7&mu;F, 47&mu;F'
p920
aS'LED, T1&frac34; (5mm)'
p921
aS'Power supply, 5V DC, regulated, 200mA minimum'
p922
aS'Power supply or wall adapter, 6V DC, 750mA minimum'
p923
aS'Machine screws, 4-40 pan head: &frac12;&quot; (4), &frac34;&quot; (2)'
p924
aS'Nuts, 4-40 hex (6)'
p925
aaS'http://guide-images.makeprojects.org/igi/VG3KymE2I2cgeRrM.standard'
p926
aS'http://makeprojects.com/Project/Teleclaw-Remote-Robot-Gripper/1088/1'
p927
asS'How to Run Mac OS on a PSP'
p928
(lp929
(lp930
aS'http://guide-images.makeprojects.org/igi/jXnONQJojOUILkLE.standard'
p931
aS'http://makeprojects.com/Project/How-to-Run-Mac-OS-on-a-PSP/428/1'
p932
asS'Tweet-A-Watt Power Monitor'
p933
(lp934
(lp935
S'Kill A Watt'
p936
aS'XBEE module'
p937
aS'XBEE adapter kit'
p938
aS'Resistor'
p939
aS'Capacitor'
p940
aS'Diode'
p941
aS'LED'
p942
aS'Heat Shrink tubing'
p943
aS'Ribbon cable'
p944
aS'Double-sided foam tape'
p945
aS'FTDI cable'
p946
aS'Access to Windows-based computer'
p947
aaS'http://guide-images.makeprojects.org/igi/MvMcD3lGVHKLmwyW.standard'
p948
aS'http://makeprojects.com/Project/Tweet-A-Watt-Power-Monitor/470/1'
p949
asS'iPalm Unlimited'
p950
(lp951
(lp952
S'Electrical Tape'
p953
aaS'http://guide-images.makeprojects.org/igi/YALJALgeJqgnXiYk.standard'
p954
aS'http://makeprojects.com/Project/iPalm-Unlimited/129/1'
p955
asS'The Trip-Cam'
p956
(lp957
(lp958
S'Transistor'
p959
aS'Magnetic reed switch'
p960
aS'Resistor'
p961
aS'Wire'
p962
aS'Solderless breadboard'
p963
aS'Solderless Breadboard Jumper Wire Kit'
p964
aS'Battery'
p965
aaS'http://guide-images.makeprojects.org/igi/IrP2YFUhuqqEf3Gu.standard'
p966
aS'http://makeprojects.com/Project/The-Trip-Cam/237/1'
p967
asS'PIR Sensor Arduino Alarm'
p968
(lp969
(lp970
S'Arduino microcontroller'
p971
aS'Breadboard'
p972
aS'PIR sensor'
p973
aS'Jumper wires'
p974
aS'Piezo buzzer'
p975
aS'LED'
p976
aaS'http://guide-images.makeprojects.org/igi/iSOGQVmBVaSCIygQ.standard'
p977
aS'http://makeprojects.com/Project/PIR-Sensor-Arduino-Alarm/72/1'
p978
asS'Advanced Cruise Control'
p979
(lp980
(lp981
aS'http://guide-images.makeprojects.org/igi/dLvfABiIG3OLUWxr.standard'
p982
aS'http://makeprojects.com/Project/Advanced-Cruise-Control/196/1'
p983
asS'Bacteria Battery'
p984
(lp985
(lp986
S'MudWatt MFC Kit'
p987
aS'Container'
p988
aS'Grommet'
p989
aS'MuddWatt Hacker Board'
p990
aS'Mud'
p991
aS'Marine Wire'
p992
aaS'http://guide-images.makeprojects.org/igi/qSAAPQyH6yIYTSu1.standard'
p993
aS'http://makeprojects.com/Project/Bacteria-Battery/2106/1'
p994
asS'Technique:Read &amp; Write Flash Contents of Your Arduino or AVR Chip'
p995
(lp996
(lp997
S'ATMega328p'
p998
aaS'http://guide-images.makeprojects.org/igi/IXyfH3ZEnSB4ESHj.standard'
p999
aS'http://makeprojects.com/Project/Read-Write-Flash-Contents-of-Your-Arduino-or-AVR-Chip/2076/1'
p1000
asS'Alarm Bag'
p1001
(lp1002
(lp1003
S'12v DC Piezo Siren'
p1004
aS'Panel Mount Mono 1/8&quot; Phone Jack'
p1005
aS'6-ft Audio Cable'
p1006
aS'8 &quot;AA&quot; Battery holder'
p1007
aS'Batteries'
p1008
aS'Battery Snap Connectors'
p1009
aS'1/4&quot; plywood and a scrap of 1/8&quot; clear plastic'
p1010
aS'A messenger-style shoulder bag'
p1011
aS'Heat-shrink tubing, multicolor assortment'
p1012
aS'Jewelry wrapping wire'
p1013
aaS'http://guide-images.makeprojects.org/igi/mbTsspJNM2AKFH3B.standard'
p1014
aS'http://makeprojects.com/Project/Alarm-Bag/1057/1'
p1015
asS'Elastic String Bass'
p1016
(lp1017
(lp1018
S'Phototransistor'
p1019
aS'Resistor'
p1020
aS'5-minute epoxy'
p1021
aS'Capacitor'
p1022
aS'Op-amp chip'
p1023
aS'LED'
p1024
aS'Infrared LED'
p1025
aS'Solid-core insulated wire'
p1026
aS'Prototyping PC board'
p1027
aS'DIP socket'
p1028
aS'Potentiometer'
p1029
aS'Toggle switch'
p1030
aS'Female audio output jack'
p1031
aS'Battery'
p1032
aS'Standoffs'
p1033
aS'Plastic tubing'
p1034
aS'Electrical Tape'
p1035
aS'Elastic bands'
p1036
aS'Guitar body'
p1037
aaS'http://guide-images.makeprojects.org/igi/hp6xWGaMkdAMv3VA.standard'
p1038
aS'http://makeprojects.com/Project/Elastic-String-Bass/35/1'
p1039
asS'Lady GaGa &quot;Video&quot; Glasses'
p1040
(lp1041
(lp1042
S'Sunglasses'
p1043
aS'Digital picture frame keychains'
p1044
aS'Acrylic paint'
p1045
aaS'http://guide-images.makeprojects.org/igi/DpnPF2iwKngJNrO5.standard'
p1046
aS'http://makeprojects.com/Project/Lady-GaGa-Video-Glasses/147/1'
p1047
asS'Parallax Ping))) Theremin'
p1048
(lp1049
(lp1050
S'Arduino microcontroller'
p1051
aS'Wire'
p1052
aS'LCD screen'
p1053
aS'10k Pot'
p1054
aS'8 Ohm mini speaker'
p1055
aS'PING))) Ultrasonic Sensor'
p1056
aS'Small Breadboard'
p1057
aS'headphone jack'
p1058
aS'Resistors, 1k&Omega;'
p1059
aaS'http://guide-images.makeprojects.org/igi/T3CWQRIsO12ZyHNL.standard'
p1060
aS'http://makeprojects.com/Project/Parallax-Ping-Theremin/1343/1'
p1061
asS'Connecting Your Robot to MyRobots / ThingSpeak'
p1062
(lp1063
(lp1064
aS'http://guide-images.makeprojects.org/igi/DWClGCeW2uSpteIi.standard'
p1065
aS'http://makeprojects.com/Project/Connecting-Your-Robot-to-MyRobots-ThingSpeak/1979/1'
p1066
asS'The Arduino Powered Laser Security System'
p1067
(lp1068
(lp1069
S'Small Breadboard or protoshield'
p1070
aS'10K Resistor'
p1071
aS'CdS Photoresistor'
p1072
aS'Cheapie Laser Pointer'
p1073
aS'Alligator test/jumper cable set'
p1074
aS'LED'
p1075
aS'Arduino'
p1076
aaS'http://guide-images.makeprojects.org/igi/aVoLyLbaHnEWyGpX.standard'
p1077
aS'http://makeprojects.com/Project/The-Arduino-Powered-Laser-Security-System/1826/1'
p1078
asS'&#039;Talking&#039; Sock Puppet'
p1079
(lp1080
(lp1081
S'Musical greeting card'
p1082
aS'Felt'
p1083
aS'Thread'
p1084
aS'Sock'
p1085
aS'Buttons'
p1086
aaS'http://guide-images.makeprojects.org/igi/wtkjk2hP32SnJIIO.standard'
p1087
aS'http://makeprojects.com/Project/-Talking-Sock-Puppet/124/1'
p1088
asS'Cheap Soldering Fan'
p1089
(lp1090
(lp1091
S'7812 Voltage Regulator'
p1092
aS'SPST toggle switch'
p1093
aS'Computer fan, 5-8 inches square'
p1094
aS'9 Volt alkaline battery'
p1095
aS'9v battery snap'
p1096
aS'Carbon filter pack, 5-8 inches square'
p1097
aS'(optinal) Fan guard, 5-8 inches square'
p1098
aS'22 awg wire'
p1099
aS'Heat shrink tubing, 6&quot;'
p1100
aS'Third-hand tool aka helping hands RS#: 64-079'
p1101
aaS'http://guide-images.makeprojects.org/igi/PYwDkKyxCatbs2pU.standard'
p1102
aS'http://makeprojects.com/Project/Cheap-Soldering-Fan/1896/1'
p1103
asS'Micro FM Transmitter'
p1104
(lp1105
(lp1106
S'Copper wire'
p1107
aS'1/4&quot; TRS jack'
p1108
aS'Battery holder clips'
p1109
aS'PCB'
p1110
aS'Double-sided foam tape'
p1111
aS'Case'
p1112
aS'Battery'
p1113
aS'Mini trim capacitor'
p1114
aS'Ceramic capacitor'
p1115
aS'Ceramic capacitor'
p1116
aS'NPN silicon transistor'
p1117
aS'Electrolytic capacitor'
p1118
aS'Metal film resistor'
p1119
aS'Metal film resistor'
p1120
aS'Metal film resistor'
p1121
aS'Multistrand hookup wire'
p1122
aS'Bubble wrap'
p1123
aaS'http://guide-images.makeprojects.org/igi/lKlDPPRwStUpQydP.standard'
p1124
aS'http://makeprojects.com/Project/Micro-FM-Transmitter/721/1'
p1125
asS'Wi-Fi Plushie'
p1126
(lp1127
(lp1128
S'Chumby'
p1129
aS'Plushie'
p1130
aaS'http://guide-images.makeprojects.org/igi/hGmYRS1p5WC6LgxJ.standard'
p1131
aS'http://makeprojects.com/Project/Wi-Fi-Plushie/1054/1'
p1132
asS'RoboBrrd'
p1133
(lp1134
(lp1135
aS'http://guide-images.makeprojects.org/igi/rNTOXGUZiYdZj2fk.standard'
p1136
aS'http://makeprojects.com/Project/RoboBrrd/862/1'
p1137
asS'LED Jellies'
p1138
(lp1139
(lp1140
S'Quilt batting'
p1141
aS'Fabric'
p1142
aS'Ribbon'
p1143
aS'Thread'
p1144
aS'Plastic bubble'
p1145
aS'Diffused LEDs'
p1146
aS'Rare earth magnets'
p1147
aS'Coin cell battery'
p1148
aaS'http://guide-images.makeprojects.org/igi/MBmvVOFk4EAOcDMw.standard'
p1149
aS'http://makeprojects.com/Project/LED-Jellies/122/1'
p1150
asS'Deluxe Scanner Camera'
p1151
(lp1152
(lp1153
S'Canon CanoScan'
p1154
aS'Foamcore board'
p1155
aS'Cardboard'
p1156
aS'Heavy cardstock'
p1157
aS'Tracing paper'
p1158
aS'Duct tape'
p1159
aS'Magnifying glass'
p1160
aS'Glue'
p1161
aS'Hobby knife'
p1162
aS'Electrical Tape'
p1163
aS'Velcro tape'
p1164
aS'Paper'
p1165
aS'Sandpaper'
p1166
aS'Tweezers'
p1167
aaS'http://guide-images.makeprojects.org/igi/CtJoYh1FTCJTt5vI.standard'
p1168
aS'http://makeprojects.com/Project/Deluxe-Scanner-Camera/226/1'
p1169
asS'Pillow Music'
p1170
(lp1171
(lp1172
S'Earbud headphones'
p1173
aS'Open-air headphones'
p1174
aS'Heat-shrink tubing'
p1175
aS'Lighter'
p1176
aS'Fabric'
p1177
aS'Velcro'
p1178
aS'Ribbon'
p1179
aaS'http://guide-images.makeprojects.org/igi/uLu6U2NmHOZGp1H5.standard'
p1180
aS'http://makeprojects.com/Project/Pillow-Music/1060/1'
p1181
asS'Emoting Puppets'
p1182
(lp1183
(lp1184
S'Muslin'
p1185
aS'Felt'
p1186
aS'Battery holder'
p1187
aS'Lithium 3V battery'
p1188
aS'Tactile switch'
p1189
aS'LEDs'
p1190
aS'Fabric'
p1191
aS'Batting'
p1192
aS'Conductive thread'
p1193
aS'Pattern'
p1194
aS'Embroidery thread'
p1195
aS'Embroidery needle'
p1196
aaS'http://guide-images.makeprojects.org/igi/sUFTKyFpwaS434mH.standard'
p1197
aS'http://makeprojects.com/Project/Emoting-Puppets/1067/1'
p1198
asS'Circuit Skills: LED Matrix'
p1199
(lp1200
(lp1201
S'LED Matrix Kit'
p1202
aaS'http://guide-images.makeprojects.org/igi/Ae4DsDui2hVkJrVJ.standard'
p1203
aS'http://makeprojects.com/Project/Circuit-Skills-LED-Matrix/648/1'
p1204
asS'Simple, Cheap, Multi-Channel, Sound-Reactive EL Wire'
p1205
(lp1206
(lp1207
S'7x1 ribbon cable'
p1208
aS'7x1 crimp terminal housing'
p1209
aS'female crimp terminals'
p1210
aS'Solder'
p1211
aS'Electrical Tape'
p1212
aS'Heat Shrink tubing'
p1213
aS'Hot glue'
p1214
aS'Copper tape'
p1215
aS'Inverter from a &quot;graphic equalizer&quot; shirt'
p1216
aaS'http://guide-images.makeprojects.org/igi/62DaWZk42eSZwxMF.standard'
p1217
aS'http://makeprojects.com/Project/Simple-Cheap-Multi-Channel-Sound-Reactive-EL-Wire/1801/1'
p1218
asS'Soldering Fume Extractor'
p1219
(lp1220
(lp1221
S'3&quot; computer fan'
p1222
aS'carbon air filter'
p1223
aS'Generic 12v power supply'
p1224
aS'Power connector'
p1225
aS'misc mounting hardware'
p1226
aS'generic project enclosure'
p1227
aaS'http://guide-images.makeprojects.org/igi/2bAdL1NYFTYKgBZW.standard'
p1228
aS'http://makeprojects.com/Project/Soldering-Fume-Extractor/1991/1'
p1229
asS'Circuit Skills: Circuit Board Etching'
p1230
(lp1231
(lp1232
S'PCB etching kit'
p1233
aS'Mini Drill kit'
p1234
aaS'http://guide-images.makeprojects.org/igi/onPKiALxYhLItOWv.standard'
p1235
aS'http://makeprojects.com/Project/Circuit-Skills-Circuit-Board-Etching/651/1'
p1236
asS'Arduino Blinking Bike Patch'
p1237
(lp1238
(lp1239
S'LiPower board'
p1240
aS'Battery'
p1241
aS'Conductive thread'
p1242
aS'Conductive velcro'
p1243
aS'Velcro tape'
p1244
aS'Bag'
p1245
aS'Fabric'
p1246
aS'Thread'
p1247
aS'LilyPad Pro Kit'
p1248
aaS'http://guide-images.makeprojects.org/igi/lKc3VUuXTFPLtTDj.standard'
p1249
aS'http://makeprojects.com/Project/Arduino-Blinking-Bike-Patch/79/1'
p1250
asS'DIY Handcam'
p1251
(lp1252
(lp1253
aS'http://guide-images.makeprojects.org/igi/svNeuBTAaNpaV1Z4.standard'
p1254
aS'http://makeprojects.com/Project/DIY-Handcam/201/1'
p1255
asS'LED &quot;Hello! My Name Is&quot; Name Tag Kit'
p1256
(lp1257
(lp1258
S'HELLO! My Name Is LED Nametag Kit'
p1259
aaS'http://guide-images.makeprojects.org/igi/wZEgiGtPYTojHdA2.standard'
p1260
aS'http://makeprojects.com/Project/LED-Hello-My-Name-Is-Name-Tag-Kit/1778/1'
p1261
asS'Over-the-Air TV Antenna'
p1262
(lp1263
(lp1264
S'matching transformer'
p1265
aaS'http://guide-images.makeprojects.org/igi/vPjxkHbJHgYLw4RD.standard'
p1266
aS'http://makeprojects.com/Project/Over-the-Air-TV-Antenna/1948/1'
p1267
asS'Mintronics: Menta'
p1268
(lp1269
(lp1270
S'Mintronics: Menta Kit'
p1271
aS'Microcontroller'
p1272
aS'IC socket, 28 pin'
p1273
aS'Ceramic oscillator'
p1274
aS'DC power jack'
p1275
aS'Diode, 1N4001'
p1276
aS'Voltage regulator IC'
p1277
aS'Voltage regulator IC'
p1278
aS'Capacitor, ceramic'
p1279
aS'Capacitor, electrolytic'
p1280
aS'Capacitor, electrolytic'
p1281
aS'Resistor'
p1282
aS'Resistor'
p1283
aS'LED'
p1284
aS'LED'
p1285
aS'Switch'
p1286
aS'Header, male'
p1287
aS'Header, male'
p1288
aS'Jumper'
p1289
aS'Header, female'
p1290
aS'Header, female'
p1291
aS'Bumpers'
p1292
aS'Printed circuit board (PCB)'
p1293
aaS'http://guide-images.makeprojects.org/igi/LApipNY6vTmkSYRS.standard'
p1294
aS'http://makeprojects.com/Project/Mintronics-Menta/2114/1'
p1295
asS'Build the Solar Theremin kit'
p1296
(lp1297
(lp1298
S'Solar-Powered Theremin (Heliophone) Kit'
p1299
aS'Make project tin'
p1300
aaS'http://guide-images.makeprojects.org/igi/ElIjdLSYBUMGZCOu.standard'
p1301
aS'http://makeprojects.com/Project/Build-the-Solar-Theremin-kit/130/1'
p1302
asS'Make a YouTube Channel Background'
p1303
(lp1304
(lp1305
aS'http://guide-images.makeprojects.org/igi/WeIfUTnDQIfG4t33.standard'
p1306
aS'http://makeprojects.com/Project/Make-a-YouTube-Channel-Background/825/1'
p1307
asS'Solar Joule Bracelet'
p1308
(lp1309
(lp1310
S'Wire'
p1311
aS'Photodiodes'
p1312
aS'Supercapacitor'
p1313
aS'Schottky signal diode'
p1314
aS'Common-mode choke'
p1315
aS'Transistor'
p1316
aS'Resistor'
p1317
aS'Capacitor'
p1318
aS'LED'
p1319
aS'Fabric'
p1320
aaS'http://guide-images.makeprojects.org/igi/LCXj6nxSMWgWtDGQ.standard'
p1321
aS'http://makeprojects.com/Project/Solar-Joule-Bracelet/22/1'
p1322
asS'CHargER'
p1323
(lp1324
(lp1325
aS'http://guide-images.makeprojects.org/igi/JPDD5Wp1NuVFiqIq.standard'
p1326
aS'http://makeprojects.com/Project/CHargER/1049/1'
p1327
asS'Arduino Morse-Maker'
p1328
(lp1329
(lp1330
S'Arduino Uno'
p1331
aaS'http://guide-images.makeprojects.org/igi/PMLnurQWPbdvwFYy.standard'
p1332
aS'http://makeprojects.com/Project/Arduino-Morse-Maker/1775/1'
p1333
asS'Intro to Scratch'
p1334
(lp1335
(lp1336
aS'http://guide-images.makeprojects.org/igi/AJNnFaNRHYKqH5CR.standard'
p1337
aS'http://makeprojects.com/Project/Intro-to-Scratch/1141/1'
p1338
asS'Arduino Mail Notifier'
p1339
(lp1340
(lp1341
S'RF Link Transmitter'
p1342
aS'Mini breadboard'
p1343
aS'10K Resistor'
p1344
aS'Photoresistor'
p1345
aS'Battery holder, 4xAA'
p1346
aS'Breadboard Wire'
p1347
aS'RF Link Receiver'
p1348
aaS'http://guide-images.makeprojects.org/igi/YUUuHljDINHRIxe6.standard'
p1349
aS'http://makeprojects.com/Project/Arduino-Mail-Notifier/805/1'
p1350
asS'Eyeboard Electrooculography (EOG) System'
p1351
(lp1352
(lp1353
S'ATMega328 P-PU'
p1354
aS'Instrument amp, INA118P'
p1355
aS'Op-amp, LM358N'
p1356
aS'USB-Serial adapter'
p1357
aS'Op-amp, LM741CN/N'
p1358
aS'Voltage regulator, KA7808AET'
p1359
aS'Crystal, 14.7456 MHz'
p1360
aS'Power supply, 12V, 3.6W'
p1361
aS'Switch, SPDT slide'
p1362
aS'Hookup wire, 22 gauge, multiple colors'
p1363
aS'Mini alligator clip jumpers'
p1364
aS'PCB or solderless breadboard'
p1365
aS'Electrodes, medical'
p1366
aS'100 ohm 1/4W 5% resistor (brown black brown gold)'
p1367
aS'Resistor, 27k ohm'
p1368
aS'1/4W 56k ohm resistor'
p1369
aS'1/4W 5% 100K resistor'
p1370
aS'Resistor, 10M ohm'
p1371
aS'Capacitors: 0.1&mu;F'
p1372
aaS'http://guide-images.makeprojects.org/igi/4XYqAi1iMM2ru3fK.standard'
p1373
aS'http://makeprojects.com/Project/Eyeboard-Electrooculography-EOG-System/1686/1'
p1374
asS'Altoids Tin Breadboard with Power Supply'
p1375
(lp1376
(lp1377
aS'http://guide-images.makeprojects.org/igi/RKKPZUW6cu2EHpZB.standard'
p1378
aS'http://makeprojects.com/Project/Altoids-Tin-Breadboard-with-Power-Supply/492/1'
p1379
asS'Musical Drawdio Puppet'
p1380
(lp1381
(lp1382
S'Fleece'
p1383
aS'Polyester fiberfill'
p1384
aS'Thread'
p1385
aS'Conductive thread'
p1386
aS'Conductive fabric'
p1387
aS'Resistor'
p1388
aS'Drawdio'
p1389
aS'Sew-on snaps'
p1390
aaS'http://guide-images.makeprojects.org/igi/gint1SRZQiC5DrEH.standard'
p1391
aS'http://makeprojects.com/Project/Musical-Drawdio-Puppet/280/1'
p1392
asS'Android-Controlled LED Light Shirt'
p1393
(lp1394
(lp1395
S'Arduino or similar 8-bit microcontroller'
p1396
aS'Bliptronics LED pixel'
p1397
aS'Bluetooth Modem - BlueSMiRF Silver'
p1398
aS'Android phone'
p1399
aS'LM1084IT 5Amp 5V LDO Linear Regulator'
p1400
aaS'http://guide-images.makeprojects.org/igi/X565BGf3lHIeCrYr.standard'
p1401
aS'http://makeprojects.com/Project/Android-Controlled-LED-Light-Shirt/1586/1'
p1402
asS'Reaction Timer'
p1403
(lp1404
(lp1405
S'Decade Counter chips'
p1406
aS'Timer chips'
p1407
aS'Switches'
p1408
aS'LED display'
p1409
aS'Breadboard'
p1410
aS'resistors'
p1411
aS'Capacitors'
p1412
aS'Potentiometer'
p1413
aS'LED'
p1414
aS'DIP IC sockets'
p1415
aS'Jumper wires'
p1416
aS'Power supply'
p1417
aaS'http://guide-images.makeprojects.org/igi/BcPiyQiPqZK1J1Hf.standard'
p1418
aS'http://makeprojects.com/Project/Reaction-Timer/1119/1'
p1419
asS'LED Tank Top'
p1420
(lp1421
(lp1422
S'Thread'
p1423
aS'LED'
p1424
aS'Liquid stitch'
p1425
aS'AVRmega15 microcontroller'
p1426
aS'DC power supply'
p1427
aS'Serial adapter'
p1428
aS'Battery holder'
p1429
aS'On/off switch'
p1430
aS'AVR programmer'
p1431
aS'Lead-free solder'
p1432
aS'Crimping beads'
p1433
aS'Garment'
p1434
aaS'http://guide-images.makeprojects.org/igi/lVf21dGBlFeKO5UW.standard'
p1435
aS'http://makeprojects.com/Project/LED-Tank-Top/25/1'
p1436
asS'Ice Tube Clock Kit'
p1437
(lp1438
(lp1439
S'Icetube Clock kit (includes all parts needed)'
p1440
aS'IV-18 vacuum fluorescent display (VFD) tube'
p1441
aS'ATmega168V-10PU Microcontroller'
p1442
aS'VFD driver in PLCC-28 package'
p1443
aS'7805 Voltage Regulator'
p1444
aS'32.768 KHz, 12.5 pF watch crystal'
p1445
aS'N-Channel HEXFET'
p1446
aS'P-channel MOSFET'
p1447
aS'60V breakdown Schottky Diode'
p1448
aS'60V zener diode'
p1449
aS'200mA fuse'
p1450
aS'2200uH power inductor, &gt;0.2A current capability'
p1451
aS'1/4W 5% 10K resistor'
p1452
aS'1/4W 5% 270K resistor'
p1453
aS'1/4W 5% 100K resistor'
p1454
aS'1/4W 5% 22 resistor'
p1455
aS'20pF ceramic capacitor'
p1456
aS'0.1uF ceramic capacitor (104)'
p1457
aS'0.1uF ceramic capacitor 100V'
p1458
aS'22uF / 100V Electrolytic Capacitor'
p1459
aS'47uF / 25V  Electrolytic Capacitor'
p1460
aS'220uF/6.3V capacitor'
p1461
aS'2.1mm Power Jack'
p1462
aS'28-PLCC socket'
p1463
aS'28-pin socket'
p1464
aS'6 pin header, 0.1&quot;x0.1&quot; spacing'
p1465
aS'Right angle SPDT switch'
p1466
aS'Right angle tactile switch'
p1467
aS'2x10 position 0.1&quot; x 0.1&quot; female header'
p1468
aS'2x10 position 0.1&quot; x 0.1&quot; right angle header'
p1469
aS'Piezo Speaker'
p1470
aS'12mm 3V lithium coin cell'
p1471
aS'12mm Coin Cell Holder'
p1472
aS'Adafrut Circuit Boards'
p1473
aaS'http://guide-images.makeprojects.org/igi/KEhIUVQaIOKOb4QJ.standard'
p1474
aS'http://makeprojects.com/Project/Ice-Tube-Clock-Kit/1092/1'
p1475
asS'Space Invaders Tote'
p1476
(lp1477
(lp1478
S'Metallic snaps'
p1479
aS'Fabric'
p1480
aS'Fabric'
p1481
aS'Fabric'
p1482
aS'Ironing board material'
p1483
aS'Nylon webbing'
p1484
aS'Interfacing'
p1485
aS'Metal strap carriers'
p1486
aS'Metallic thread'
p1487
aS'Nonmetallic thread'
p1488
aS'Fabric fusing material'
p1489
aS'Conductive thread'
p1490
aS'Electrical Tape'
p1491
aS'Ruler'
p1492
aS'Cellphone flasher'
p1493
aS'Stranded Wire'
p1494
aS'LED'
p1495
aaS'http://guide-images.makeprojects.org/igi/mJSEJoUWK6jBv3QK.standard'
p1496
aS'http://makeprojects.com/Project/Space-Invaders-Tote/1794/1'
p1497
asS'3D Models with OpenSCAD'
p1498
(lp1499
(lp1500
aS'http://guide-images.makeprojects.org/igi/goDVTND1YJTwViGJ.standard'
p1501
aS'http://makeprojects.com/Project/3D-Models-with-OpenSCAD/165/1'
p1502
asS'Solar TV Remote'
p1503
(lp1504
(lp1505
S'Remote control'
p1506
aS'Batteries'
p1507
aS'Solar cell'
p1508
aS'Wire Insulated'
p1509
aS'Diode'
p1510
aS'Packing tape'
p1511
aS'Velcro tape'
p1512
aS'Heat-shrink tubing, multicolor assortment'
p1513
aaS'http://guide-images.makeprojects.org/igi/aNxnuvWNVFOnSGke.standard'
p1514
aS'http://makeprojects.com/Project/Solar-TV-Remote/969/1'
p1515
asS'Mini Fume Extractor'
p1516
(lp1517
(lp1518
S'Mini Fume Extractor Parts Bundle'
p1519
aS'Paint'
p1520
aaS'http://guide-images.makeprojects.org/igi/2JOYlu1G1KsoWRZI.standard'
p1521
aS'http://makeprojects.com/Project/Mini-Fume-Extractor/21/1'
p1522
asS'Battery-Heated Poncho'
p1523
(lp1524
(lp1525
S'12Volt electric blanket'
p1526
aaS'http://guide-images.makeprojects.org/igi/c44XdY2otqLDE36X.standard'
p1527
aS'http://makeprojects.com/Project/Battery-Heated-Poncho/2046/1'
p1528
asS'Technique:Capacitor Rebuilding for Fun or Profit'
p1529
(lp1530
(lp1531
aS'http://guide-images.makeprojects.org/igi/pxsKKmhJHEFhHjS4.standard'
p1532
aS'http://makeprojects.com/Project/Capacitor-Rebuilding-for-Fun-or-Profit/1692/1'
p1533
asS'Plush Irradiated Sirloin'
p1534
(lp1535
(lp1536
S'360&deg; LEDs'
p1537
aS'Transistor'
p1538
aS'Solderless breadboard'
p1539
aS'Solder'
p1540
aS'Fabric'
p1541
aS'Thread'
p1542
aS'Polyester fiberfill'
p1543
aS'Arduino microcontroller'
p1544
aS'AC adapter'
p1545
aS'Toggle switch'
p1546
aS'Epoxy'
p1547
aS'Hook-up wire'
p1548
aaS'http://guide-images.makeprojects.org/igi/D6Ze32W5sj2eSchs.standard'
p1549
aS'http://makeprojects.com/Project/Plush-Irradiated-Sirloin/73/1'
p1550
asS'Build a Wirebot'
p1551
(lp1552
(lp1553
S'Arduino Uno'
p1554
aS'Arduino grblShield'
p1555
aS'Bipolar Stepper Motor'
p1556
aS'Fishing Line'
p1557
aS'Box of Zip Ties'
p1558
aS'Ping pong ball'
p1559
aS'4-40 screw'
p1560
aS'PVC pipe and elbows'
p1561
aaS'http://guide-images.makeprojects.org/igi/rVlbDEWLGEXTXaNh.standard'
p1562
aS'http://makeprojects.com/Project/Build-a-Wirebot/744/1'
p1563
asS'0 - 24 Volt, 2 Amp Bench Top Power Supply'
p1564
(lp1565
(lp1566
S'Breadboard 3&quot;x5&quot;'
p1567
aS'LM317'
p1568
aS'Heatsink TO-220'
p1569
aS'Bridge rectifier'
p1570
aS'120 VAC to 24 VDC transformer (mine is part number LP-575)'
p1571
aS'Power Cable'
p1572
aS'Electrolytic Capacitor 1000uF'
p1573
aS'Capacitors: 0.1&mu;F'
p1574
aS'Capacitor: 1uf'
p1575
aS'100 ohm 1/4W 5% resistor (brown black brown gold)'
p1576
aS'5k Linear Potentiomater'
p1577
aS'Diode: 1N4002'
p1578
aS'Knob - Plastic 1/4&quot; shaft'
p1579
aS'Mini Volt Meter (ID: 460 from Adafruit Industries NOTE: These operate from +3.2V to +30V DC and are powered by the supply being measured)'
p1580
aS'24&quot;&times;24&quot; piece of   1&frasl;2&quot; plywood'
p1581
aS'1/8&quot; wood or MDF'
p1582
aS'1/2&quot; long x 1/8&quot; wide nuts and bolts'
p1583
aS'half inch wood screws'
p1584
aaS'http://guide-images.makeprojects.org/igi/sErDSpk3VZFhxm4u.standard'
p1585
aS'http://makeprojects.com/Project/0-24-Volt-2-Amp-Bench-Top-Power-Supply/1428/1'
p1586
asS'Light Theremin'
p1587
(lp1588
(lp1589
S'Resistor'
p1590
aS'Hookup wire'
p1591
aS'Breadboard'
p1592
aS'Capacitor 0.22&mu;F'
p1593
aS'Electrolytic Capacitor 100&micro;F'
p1594
aS'Speaker'
p1595
aS'Photoresistor'
p1596
aS'Battery holder, 4xAA'
p1597
aS'555 timer IC from RadioShack'
p1598
aaS'http://guide-images.makeprojects.org/igi/lKbHonKd4Ga1MCim.standard'
p1599
aS'http://makeprojects.com/Project/Light-Theremin/989/1'
p1600
asS'Homemade Yagi Antenna'
p1601
(lp1602
(lp1603
S'UHF FM radio'
p1604
aS'Square wooden dowel, 1&quot;x1&quot;x30&quot; or longer'
p1605
aS'Brass rods, 1/8&quot; diameter, 36&quot; long'
p1606
aS"Coaxial cable, RG-58, with BNC connectors, 3'"
p1607
aS'Nylon cable ties'
p1608
aaS'http://guide-images.makeprojects.org/igi/rI1Wu2625EAPEwqh.standard'
p1609
aS'http://makeprojects.com/Project/Homemade-Yagi-Antenna/623/1'
p1610
asS'Fifty-Cent Macro Lens'
p1611
(lp1612
(lp1613
S'Reading glasses (1.25 to 2.0 diopter from the dollar store)'
p1614
aaS'http://guide-images.makeprojects.org/igi/GXarGq6OvOjmnq3Q.standard'
p1615
aS'http://makeprojects.com/Project/Fifty-Cent-Macro-Lens/409/1'
p1616
asS'IC Wall Outlet Adapter'
p1617
(lp1618
(lp1619
S'Extension cord'
p1620
aS'Transformer'
p1621
aS'Schottky signal diode'
p1622
aS'LM7805 voltage regulator'
p1623
aS'Capacitor'
p1624
aS'Project box'
p1625
aS'Perfboards'
p1626
aaS'http://guide-images.makeprojects.org/igi/BKNjWKuLtEhZwYGy.standard'
p1627
aS'http://makeprojects.com/Project/IC-Wall-Outlet-Adapter/527/1'
p1628
asS'The Bobbinator'
p1629
(lp1630
(lp1631
S'Bobbins'
p1632
aS'Magnets'
p1633
aS'Rod'
p1634
aS'Wire'
p1635
aS'PTFE tape'
p1636
aS'Thin plastic or laminated card'
p1637
aS'Epoxy glue'
p1638
aaS'http://guide-images.makeprojects.org/igi/K325lKoCAblmIV5n.standard'
p1639
aS'http://makeprojects.com/Project/The-Bobbinator/1976/1'
p1640
asS'Drive a 7-Segment LED with an Arduino'
p1641
(lp1642
(lp1643
S'misc resistors'
p1644
aS'Mini breadboard'
p1645
aS'Connecting (jumper) wires'
p1646
aaS'http://guide-images.makeprojects.org/igi/qJLSkjtrAWrCxYTo.standard'
p1647
aS'http://makeprojects.com/Project/Drive-a-7-Segment-LED-with-an-Arduino/645/1'
p1648
asS'Wearable Light Organ'
p1649
(lp1650
(lp1651
S'Op-Amp chip, Quad, LM324'
p1652
aS'Capacitor, 1.0&micro;F non-polarized electrolytic (capacitor code 105)'
p1653
aS'Capacitor, 0.1 &micro;F ceramic (100 nF, capacitor code 104)'
p1654
aS'Microphone condenser element'
p1655
aS'Transistor, NPN, 2N4401'
p1656
aS'Resistor assortment, 500 piece'
p1657
aS'PC board, grid style, with 371 holes'
p1658
aS'Hookup wire, 22 gauge, multiple colors'
p1659
aS'Battery snap, 9V'
p1660
aS'Battery, 9V'
p1661
aS'Solder, lead-free'
p1662
aS'LED 5mm'
p1663
aaS'http://guide-images.makeprojects.org/igi/hIEpEOliFpbfJaIy.standard'
p1664
aS'http://makeprojects.com/Project/Wearable-Light-Organ/1114/1'
p1665
asS'DIY Soldering Iron Stand'
p1666
(lp1667
(lp1668
aS'http://guide-images.makeprojects.org/igi/UsooQyivaEiyKGUE.standard'
p1669
aS'http://makeprojects.com/Project/DIY-Soldering-Iron-Stand/213/1'
p1670
asS'Tacit: A Haptic Wrist Rangefinder'
p1671
(lp1672
(lp1673
S'Ultrasonic distance sensors'
p1674
aS'Microcontroller'
p1675
aS'Servomotors'
p1676
aS'Perf board'
p1677
aS'Pin header rows'
p1678
aS'Wire'
p1679
aS'Battery'
p1680
aS'20&ndash;22 gauge, insulated, stranded, various colors'
p1681
aS'Switch'
p1682
aS'Machine screws'
p1683
aS'ShapeLock'
p1684
aS'PET plastic sheet'
p1685
aS'Rubber or vinyl strip'
p1686
aS'Neoprene'
p1687
aS'Hook and loop tape'
p1688
aS'Bias tape'
p1689
aS'Zip ties'
p1690
aS'Epoxy'
p1691
aaS'http://guide-images.makeprojects.org/igi/TGdeAeiY1FMKUUbC.standard'
p1692
aS'http://makeprojects.com/Project/Tacit-A-Haptic-Wrist-Rangefinder/1842/1'
p1693
asS'Make Your Own QR Codes'
p1694
(lp1695
(lp1696
aS'http://guide-images.makeprojects.org/igi/GuEux1WwLWkZOQaN.standard'
p1697
aS'http://makeprojects.com/Project/Make-Your-Own-QR-Codes/2124/1'
p1698
asS'Repurposed Switch-Mode Power Supply'
p1699
(lp1700
(lp1701
aS'http://guide-images.makeprojects.org/igi/JJditUXVFkfa5yAM.standard'
p1702
aS'http://makeprojects.com/Project/Repurposed-Switch-Mode-Power-Supply/233/1'
p1703
asS'Circuit-Bend Your Casio SK Keyboard'
p1704
(lp1705
(lp1706
S'Casio SK-series keyboard'
p1707
aS'Stranded wire 22- gauge or thereabouts'
p1708
aS'Small machine screws and nuts'
p1709
aS'Flat non-conducting easily drillable box'
p1710
aS'Flat non-conducting box'
p1711
aS'Assorted switches contacts and other bend components'
p1712
aS'Flat non-conducting easily drillable panel about 5&quot;x5&quot;'
p1713
aS'Hose clamps (2)'
p1714
aS'Alligator clips'
p1715
aS'Ethernet cable'
p1716
aS'Ethernet jack'
p1717
aS'Flexible plastic tubing'
p1718
aS'Momentary switches'
p1719
aaS'http://guide-images.makeprojects.org/igi/AImflkrucnWHGK23.standard'
p1720
aS'http://makeprojects.com/Project/Circuit-Bend-Your-Casio-SK-Keyboard/439/1'
p1721
asS'Secret-Knock Gumball Machine'
p1722
(lp1723
(lp1724
S'Plywood'
p1725
aS'Wood stock'
p1726
aS'Clear plastic light globe'
p1727
aS'Wood screws'
p1728
aS'Wood screws'
p1729
aS'T-nut'
p1730
aS'Bolt'
p1731
aS'Washers'
p1732
aS'Brass tube'
p1733
aS'Arduino Uno microcontroller'
p1734
aS'Servomotor'
p1735
aS'Male breakaway  headers'
p1736
aS'Perf board'
p1737
aS'LEDs'
p1738
aS'LED holders'
p1739
aS'Piezo buzzer'
p1740
aS'resistors'
p1741
aS'SPST momentary push-button'
p1742
aS'Potentiometer'
p1743
aS'Power jack'
p1744
aS'9V DC power supply'
p1745
aS'Insulated solid-core wire'
p1746
aS'Stick-on rubber feet'
p1747
aS'Small cable ties'
p1748
aS'Wood screws'
p1749
aS'Machine screws'
p1750
aS'Nuts'
p1751
aS'Gumballs'
p1752
aS'LEDs'
p1753
aS'Thumbtacks'
p1754
aaS'http://guide-images.makeprojects.org/igi/4IavwvhyqLZVJC2H.standard'
p1755
aS'http://makeprojects.com/Project/Secret-Knock-Gumball-Machine/2028/1'
p1756
asS'Build your own Arduino-Controlled Robot!'
p1757
(lp1758
(lp1759
S'4WD Arduino Compatible Mobile Platform'
p1760
aS'PING))) Ultrasonic Sensor'
p1761
aS'MotorShield for Arduino Kit'
p1762
aS'Batteries, AA'
p1763
aaS'http://guide-images.makeprojects.org/igi/U1J2D5xEQsESi1cn.standard'
p1764
aS'http://makeprojects.com/Project/Build-your-own-Arduino-Controlled-Robot-/577/1'
p1765
asS'Wind Your Own Guitar Pickups'
p1766
(lp1767
(lp1768
S'Magnets'
p1769
aS'Magnet wire'
p1770
aS'Tape'
p1771
aS'Emery paper'
p1772
aS'Scrap wood'
p1773
aS'Wire'
p1774
aS'Weight'
p1775
aS'Paint Can'
p1776
aS'Paraffin'
p1777
aS'Beeswax'
p1778
aS'Tape'
p1779
aS'Pins'
p1780
aS'Plywood'
p1781
aS'Wool felt'
p1782
aS'Audio cable'
p1783
aS'Phone jack'
p1784
aS'Volt-ohmmeter'
p1785
aS'Compass'
p1786
aS'Pot of hot water'
p1787
aaS'http://guide-images.makeprojects.org/igi/P1uJsEL2laSOmSNe.standard'
p1788
aS'http://makeprojects.com/Project/Wind-Your-Own-Guitar-Pickups/1461/1'
p1789
asS'15-LED Light Kit'
p1790
(lp1791
(lp1792
aS'http://guide-images.makeprojects.org/igi/LCZJ3cuA4iSO2Ox3.standard'
p1793
aS'http://makeprojects.com/Project/15-LED-Light-Kit/1846/1'
p1794
asS'DIY Lens Hood'
p1795
(lp1796
(lp1797
aS'http://guide-images.makeprojects.org/igi/mBUoAwCpoPqp5cMs.standard'
p1798
aS'http://makeprojects.com/Project/DIY-Lens-Hood/1700/1'
p1799
asS'Replace and Re-Flash a Blown Arduino'
p1800
(lp1801
(lp1802
S'ATMega328'
p1803
aaS'http://guide-images.makeprojects.org/igi/aMC2LKotJUMBSSFD.standard'
p1804
aS'http://makeprojects.com/Project/Replace-and-Re-Flash-a-Blown-Arduino/640/1'
p1805
asS'Pendulum Challenge Build'
p1806
(lp1807
(lp1808
S'Pendulum'
p1809
aaS'http://guide-images.makeprojects.org/igi/dlYT2GbuRoZas4DV.standard'
p1810
aS'http://makeprojects.com/Project/Pendulum-Challenge-Build/1618/1'
p1811
asS'Electronic Embroidery'
p1812
(lp1813
(lp1814
S'Pattern'
p1815
aS'Carbon paper'
p1816
aS'Fabric'
p1817
aS'Sternlab LED Sewing Kit'
p1818
aS'LED'
p1819
aS'On/off switch'
p1820
aS'Coin cell battery'
p1821
aS'Battery holder'
p1822
aS'Conductive thread'
p1823
aS'Embroidery needle'
p1824
aS'Thread'
p1825
aaS'http://guide-images.makeprojects.org/igi/fZvpvvmUZMChrdUb.standard'
p1826
aS'http://makeprojects.com/Project/Electronic-Embroidery/44/1'
p1827
asS'Whack-a-Mole Game'
p1828
(lp1829
(lp1830
S'Hookup wire'
p1831
aS'LM556 IC'
p1832
aS'Diodes'
p1833
aS'NPN Transistor'
p1834
aS'PNP Transistor'
p1835
aS'Copper Clad PC board'
p1836
aS'PCB Etchant'
p1837
aS'Speaker'
p1838
aS'Electrolytic Capacitor 1.0&mu;F'
p1839
aS'Electrolytic capacitor 100uF'
p1840
aS'Polyester Capacitor 0.1&micro;F'
p1841
aS'Electrolytic Capacitor 10&micro;F'
p1842
aS'LED, Green'
p1843
aS'LED, Red'
p1844
aS'Resistor'
p1845
aS'DIP sockets'
p1846
aS'Batteries'
p1847
aS'Battery Holder 3XAAA'
p1848
aS'Spray adhesive'
p1849
aaS'http://guide-images.makeprojects.org/igi/OlU3itB2CKUqMUDa.standard'
p1850
aS'http://makeprojects.com/Project/Whack-a-Mole-Game/977/1'
p1851
asS'Yellow Drum Machine'
p1852
(lp1853
(lp1854
S'Picaxe-28X1 Starter Pack (USB)'
p1855
aS'Motor driver chips, L293D'
p1856
aS'Solarbotics GM10 pager gearmotors'
p1857
aS'Sound recorder module (aka sampler board), 20-second'
p1858
aS'Speaker, 2&quot;, 16&Omega;'
p1859
aS'Ultrasonic distance sensor'
p1860
aS'Solarbotics Gear Motor and Tread Package, GM9 (143:1, 90&deg; shaft)'
p1861
aS'Flat wooden sticks'
p1862
aS"Lightweight tubing or rod, fiberglass, carbon fiber, or hollow aluminum, about 1' (30cm)"
p1863
aS'Lightweight fiberglass rod, very thin, about 6&quot; (15cm'
p1864
aS'Aluminum or other tubing, &frac14;&quot; (6.4mm) diameter &times; 4&quot; (10cm)'
p1865
aS'Metal washers'
p1866
aS'Battery holder (long), 4&times;AA (2&times;2)'
p1867
aS'Female-to-female jumper wires'
p1868
aS"Wire, stranded, 18&ndash;22 gauge, 3'"
p1869
aS'Header pins, male, snap-off'
p1870
aS'Heat-shrink tubing'
p1871
aS'Cable ties, various sizes and colors'
p1872
aS'Rechargeable AA batteries, 1.2V'
p1873
aS'Epoxy, quick-setting'
p1874
aS'Adhesive tape, double-sided'
p1875
aaS'http://guide-images.makeprojects.org/igi/SEGakGBUERMprFQh.standard'
p1876
aS'http://makeprojects.com/Project/Yellow-Drum-Machine/1077/1'
p1877
asS'Use an Arduino Clone to Control a TV'
p1878
(lp1879
(lp1880
S'solder-type RCA plug'
p1881
aS'misc resistors'
p1882
aS'22 awg wire'
p1883
aS'Parts from previous project'
p1884
aaS'http://guide-images.makeprojects.org/igi/qtyTNZtCb5KeXkNh.standard'
p1885
aS'http://makeprojects.com/Project/Use-an-Arduino-Clone-to-Control-a-TV/636/1'
p1886
asS'Simple AC to DC Power Supply'
p1887
(lp1888
(lp1889
S'470uf Capacitors'
p1890
aS'14awg-20awg hook-up wire'
p1891
aS'Header Pins'
p1892
aS'Bridge rectifier'
p1893
aaS'http://guide-images.makeprojects.org/igi/VZL1UGuNxrM22Kgm.standard'
p1894
aS'http://makeprojects.com/Project/Simple-AC-to-DC-Power-Supply/821/1'
p1895
asS'Wind Lantern'
p1896
(lp1897
(lp1898
S'Stepper motor'
p1899
aS'Breakaway male headers'
p1900
aS'Solderless breadboard'
p1901
aS'Jumper wires'
p1902
aS'Diodes'
p1903
aS'LED'
p1904
aS'Capacitor'
p1905
aS'Acrylic sheet'
p1906
aS'Aluminum flashing'
p1907
aS'Shaft collars'
p1908
aS'Shaft collars'
p1909
aS'Aluminum tube'
p1910
aS'Flanged sleeve bearing'
p1911
aS'Thrust bearing cage assembly'
p1912
aS'Threaded standoffs'
p1913
aS'Cap screws'
p1914
aS'Lock washer'
p1915
aS'Flat washer'
p1916
aS'M3 screws'
p1917
aS'M3 lock washers'
p1918
aS'M3 washers'
p1919
aaS'http://guide-images.makeprojects.org/igi/Sx6AM6OXGsgNvlEO.standard'
p1920
aS'http://makeprojects.com/Project/Wind-Lantern/675/1'
p1921
asS'Automatic Shutters'
p1922
(lp1923
(lp1924
aS'http://guide-images.makeprojects.org/igi/5P2PcAFA4OvCIEWN.standard'
p1925
aS'http://makeprojects.com/Project/Automatic-Shutters/1854/1'
p1926
asS'Aircraft Band Receiver'
p1927
(lp1928
(lp1929
S'Analog AM/FM receiver'
p1930
aaS'http://guide-images.makeprojects.org/igi/kHAfSuvIMxxjMond.standard'
p1931
aS'http://makeprojects.com/Project/Aircraft-Band-Receiver/985/1'
p1932
asS'The Stealth Mic'
p1933
(lp1934
(lp1935
S'Microphone condenser elements'
p1936
aS'Solid-core wrap wire'
p1937
aS'Heat-shrink tubing'
p1938
aS'Lighter'
p1939
aS'Stereo plug'
p1940
aS'Earbud cushions'
p1941
aaS'http://guide-images.makeprojects.org/igi/EsKiZVQmHKwy6fjM.standard'
p1942
aS'http://makeprojects.com/Project/The-Stealth-Mic/34/1'
p1943
asS'LED Robot Ornament'
p1944
(lp1945
(lp1946
S'Cardboard'
p1947
aS'Spray paint'
p1948
aS'LED Sewing Kit'
p1949
aS'Yarn, string, or other cord'
p1950
aaS'http://guide-images.makeprojects.org/igi/ySEiWqErONfedWTX.standard'
p1951
aS'http://makeprojects.com/Project/LED-Robot-Ornament/1752/1'
p1952
asS'LED Shoe Clips'
p1953
(lp1954
(lp1955
S'Fabric'
p1956
aS'Felt'
p1957
aS'LED Sewing Kit'
p1958
aaS'http://guide-images.makeprojects.org/igi/YcMmAoOLrHaduaeX.standard'
p1959
aS'http://makeprojects.com/Project/LED-Shoe-Clips/1178/1'
p1960
asS'Electronic Origami'
p1961
(lp1962
(lp1963
S'Coin cell battery'
p1964
aS'LED'
p1965
aS'Tape'
p1966
aS'Paper'
p1967
aS'Paper clip'
p1968
aaS'http://guide-images.makeprojects.org/igi/CwjAEyv2kLmFCDrW.standard'
p1969
aS'http://makeprojects.com/Project/Electronic-Origami/150/1'
p1970
asS'LED Hula Hoop'
p1971
(lp1972
(lp1973
S'HDPE plastic tubing'
p1974
aS'Measuring tape'
p1975
aS'Barbed pipe fitting'
p1976
aS'Electrical Tape'
p1977
aS'Switch'
p1978
aS'Lithium CMOS battery'
p1979
aS'Resistor'
p1980
aS'LED'
p1981
aS'Wire'
p1982
aS'Wire'
p1983
aS'Epoxy'
p1984
aaS'http://guide-images.makeprojects.org/igi/h5un2Q1h1YVJiQIL.standard'
p1985
aS'http://makeprojects.com/Project/LED-Hula-Hoop/300/1'
p1986
asS'Proximity Swipe Card Repair'
p1987
(lp1988
(lp1989
S'Proximity card'
p1990
aS'Proximity card'
p1991
aS'Rubbing Alcohol'
p1992
aaS'http://guide-images.makeprojects.org/igi/kkkGS5VmMV2mVnHQ.standard'
p1993
aS'http://makeprojects.com/Project/Proximity-Swipe-Card-Repair/61/1'
p1994
asS'Arduino-Based MIDI Drum System'
p1995
(lp1996
(lp1997
aS'http://guide-images.makeprojects.org/igi/EsIC3aBkILiDkICY.standard'
p1998
aS'http://makeprojects.com/Project/Arduino-Based-MIDI-Drum-System/489/1'
p1999
asS'Free Calls from an iPod Touch or iPhone'
p2000
(lp2001
(lp2002
aS'http://guide-images.makeprojects.org/igi/P3BRZPOPKGsm31Gi.standard'
p2003
aS'http://makeprojects.com/Project/Free-Calls-from-an-iPod-Touch-or-iPhone/833/1'
p2004
asS'TV that Greets You: Adding Sensors'
p2005
(lp2006
(lp2007
S'PIR sensor'
p2008
aS'22 awg wire'
p2009
aaS'http://guide-images.makeprojects.org/igi/HABNiMwRjokXftUY.standard'
p2010
aS'http://makeprojects.com/Project/TV-that-Greets-You-Adding-Sensors/639/1'
p2011
asS'Hacking the Wii MotionPlus to Talk to the Arduino'
p2012
(lp2013
(lp2014
S'Arduino microcontroller'
p2015
aS'Wii Motion Plus'
p2016
aS'Wii Chuck Adapter'
p2017
aS'470 Ohm resistors'
p2018
aS'Hook-up wire'
p2019
aS'Servo (generic)'
p2020
aaS'http://guide-images.makeprojects.org/igi/jZIaV5iuAftGSMRJ.standard'
p2021
aS'http://makeprojects.com/Project/Hacking-the-Wii-MotionPlus-to-Talk-to-the-Arduino/593/1'
p2022
asS'Add Volume, Jack'
p2023
(lp2024
(lp2025
S'Audio toy, mono (single speaker)'
p2026
aS'Potentiometer'
p2027
aS'Switching audio jack, normally closed (NC)'
p2028
aS'Stranded Wire'
p2029
aS'Resistor 10&Omega;'
p2030
aS'Knob'
p2031
aaS'http://guide-images.makeprojects.org/igi/sWI1o1IkMWmLejfp.standard'
p2032
aS'http://makeprojects.com/Project/Add-Volume-Jack/926/1'
p2033
asS'The BeatBearing Tangible Rhythm Sequencer'
p2034
(lp2035
(lp2036
S'Ribbon cable'
p2037
aS'Hookup wire'
p2038
aS'Ball bearings'
p2039
aS'USB cable'
p2040
aS'microcontroller board'
p2041
aS'Washers'
p2042
aS'Multiplexer chips'
p2043
aS'resistors'
p2044
aS'Breadboard'
p2045
aS'D-sub connectors'
p2046
aS'Computer'
p2047
aS'CRT monitor'
p2048
aS'Acrylic/plegixglass sheet'
p2049
aS'Screws'
p2050
aS'Solder tabs'
p2051
aS'Cardboard'
p2052
aS'Duct tape'
p2053
aS'Milk crate'
p2054
aS'Poster board'
p2055
aaS'http://guide-images.makeprojects.org/igi/RDsVnMfDGJPFdRPB.standard'
p2056
aS'http://makeprojects.com/Project/The-BeatBearing-Tangible-Rhythm-Sequencer/1237/1'
p2057
asS'Fun with Push Lights'
p2058
(lp2059
(lp2060
S'Auto Color Changings LEDs'
p2061
aS'hook-up wire small any color'
p2062
aaS'http://guide-images.makeprojects.org/igi/jfMFRWSfHKKoFFWa.standard'
p2063
aS'http://makeprojects.com/Project/Fun-with-Push-Lights/701/1'
p2064
asS'Charge an iPod with an Onion'
p2065
(lp2066
(lp2067
S'Onion'
p2068
aS'Gatorade or Powerade'
p2069
aS'ipod'
p2070
aS'ipod USB charger'
p2071
aaS'http://guide-images.makeprojects.org/igi/ooUcNcyHqvAG33Id.standard'
p2072
aS'http://makeprojects.com/Project/Charge-an-iPod-with-an-Onion/746/1'
p2073
asS'Make: Electronic Skill Badge'
p2074
(lp2075
(lp2076
S'Learn-to-Solder Skill Badge Kit'
p2077
aaS'http://guide-images.makeprojects.org/igi/gX1H2IVHl2dwjZWj.standard'
p2078
aS'http://makeprojects.com/Project/Make-Electronic-Skill-Badge/82/1'
p2079
asS'Sounds from Old CFLs'
p2080
(lp2081
(lp2082
S'CFL bulb'
p2083
aS'Resistor'
p2084
aS'Potentiometer'
p2085
aS'Perf board'
p2086
aS'Hook-up wire'
p2087
aS'Audio jacks'
p2088
aS'Step switch'
p2089
aS'Case'
p2090
aS'Velcro tape'
p2091
aaS'http://guide-images.makeprojects.org/igi/dTgyUg6bMaS6VNfA.standard'
p2092
aS'http://makeprojects.com/Project/Sounds-from-Old-CFLs/28/1'
p2093
asS'Build a Mintronics: MintDuino'
p2094
(lp2095
(lp2096
S'Mintronics: MintDuino'
p2097
aaS'http://guide-images.makeprojects.org/igi/bs2ynIZcTNUfKTju.standard'
p2098
aS'http://makeprojects.com/Project/Build-a-Mintronics-MintDuino/608/1'
p2099
asS'Water Leak Detector'
p2100
(lp2101
(lp2102
S'Bridge rectifier'
p2103
aS'Capacitor, 220&mu;F electrolytic'
p2104
aS'Transistor, PNP'
p2105
aS'Transistor, NPN'
p2106
aS'Resistors, &frac14; watt'
p2107
aS'Piezoelectric buzzer'
p2108
aS'Switch, SPST pushbutton, normally open (N.O.), panel-mount'
p2109
aS'Wire, insulated, 18-22 gauge stranded, multiple colors'
p2110
aS'Wire, solid copper, insulated, 18&ndash;20 gauge'
p2111
aS'Project box, small'
p2112
aS'Perf board, 2&quot; square'
p2113
aS'Machine screws, about 1&quot;, with matching washers and nuts'
p2114
aS'1/2&quot; wood screws'
p2115
aS'Kitchen sponges, pop-up, 3&quot;X4&quot;'
p2116
aS'Transformer, 16V-20V AC step-down'
p2117
aaS'http://guide-images.makeprojects.org/igi/lyqevQRWdWpBXOPy.standard'
p2118
aS'http://makeprojects.com/Project/Water-Leak-Detector/1382/1'
p2119
asS'Charlie&#039;s RFID Teddy Bear'
p2120
(lp2121
(lp2122
S'Charlie Bear Project Bundle'
p2123
aS'Stuffed toy'
p2124
aS'Arduino microcontroller'
p2125
aS'Wave Shield'
p2126
aS'Parallax RFID Reader'
p2127
aS'RFID tags'
p2128
aS'Speaker, 3&quot;'
p2129
aS'Connector header'
p2130
aS'Wire'
p2131
aS'Velcro'
p2132
aS'Thread'
p2133
aS'Barrel connector'
p2134
aS'Battery holder, 6xAA'
p2135
aS'Batteries, AA'
p2136
aS'SD memory card'
p2137
aS'Battery clip'
p2138
aaS'http://guide-images.makeprojects.org/igi/LgB5aNqo5rTtZpjZ.standard'
p2139
aS'http://makeprojects.com/Project/Charlie-s-RFID-Teddy-Bear/1411/1'
p2140
asS'Soft-Circuit LED Bracelet'
p2141
(lp2142
(lp2143
S'Felt'
p2144
aS'Thread'
p2145
aS'Fabric'
p2146
aS'Conductive thread'
p2147
aS'Conductive velcro'
p2148
aS'Purse snap'
p2149
aS'Sew-on snaps'
p2150
aS'Coin cell battery holder'
p2151
aS'Coin cell battery'
p2152
aS'LED'
p2153
aaS'http://guide-images.makeprojects.org/igi/Qq2oQFMaDtD1Lmjc.standard'
p2154
aS'http://makeprojects.com/Project/Soft-Circuit-LED-Bracelet/146/1'
p2155
asS'Simple Laser Communicator'
p2156
(lp2157
(lp2158
S'Laser pointer'
p2159
aS'Batteries'
p2160
aS'Wire'
p2161
aS'Transformer, audio output, 1k&Omega; primary coil, 8&Omega; secondary'
p2162
aS'Battery holder, 3 x AAA'
p2163
aS'Alligator clip leads (2-10) with points fine enough to connect to the inside of the laser pointer'
p2164
aS'LED, 2-lead bicolor'
p2165
aS'Wire, hookup, 22 gauge stranded'
p2166
aS'Amplifier, mini, portable'
p2167
aS'Microphone, with cable and plug'
p2168
aS'Crystal earphone'
p2169
aS'Battery, 9V'
p2170
aS'Snap connector for 9V battery'
p2171
aS'Photoresistor, cadmium sulfide (CdS)'
p2172
aS'Resistor, 220&Omega;'
p2173
aaS'http://guide-images.makeprojects.org/igi/ewn1TNGXX6WFQeUy.standard'
p2174
aS'http://makeprojects.com/Project/Simple-Laser-Communicator/972/1'
p2175
asS'Glowing Halloween Card'
p2176
(lp2177
(lp2178
aS'http://guide-images.makeprojects.org/igi/56Mf2gnCJOnJOoNX.standard'
p2179
aS'http://makeprojects.com/Project/Glowing-Halloween-Card/1491/1'
p2180
asS'Technique:Laptopogram'
p2181
(lp2182
(lp2183
S'Photopaper'
p2184
aS'Photopaper developer'
p2185
aS'Photopaper fixer'
p2186
aS'Safelight'
p2187
aS'laptop'
p2188
aS'3 trays'
p2189
aS'Darkroom'
p2190
aaS'http://guide-images.makeprojects.org/igi/vs4EnoTEMEZOQUy6.standard'
p2191
aS'http://makeprojects.com/Project/Laptopogram/1429/1'
p2192
asS'MP3 Player as Flash Drive'
p2193
(lp2194
(lp2195
S'MP3 Player'
p2196
aS'USB cable'
p2197
aS'Computer running Windows XP, Vista, or Mac OS X'
p2198
aS'Files for MP3 Player'
p2199
aaS'http://guide-images.makeprojects.org/igi/SPbcKR1PUOkTm1Ma.standard'
p2200
aS'http://makeprojects.com/Project/MP3-Player-as-Flash-Drive/852/1'
p2201
asS'Garduino Geek Gardening'
p2202
(lp2203
(lp2204
S'Arduino microcontroller'
p2205
aS'Circuit board'
p2206
aS'Relay'
p2207
aS'Diode'
p2208
aS'Resistor'
p2209
aS'LED'
p2210
aS'Photocell'
p2211
aS'Thermistor'
p2212
aS'Wire'
p2213
aS'Resistor'
p2214
aS'Galvanized nails'
p2215
aS'USB cable'
p2216
aS'AC extension cords'
p2217
aS'Plastic milk jug'
p2218
aS'Storage containers'
p2219
aS'Bricks'
p2220
aS'Seeds'
p2221
aS'Fluorescent light fixture'
p2222
aS'Fluorescent tube grow light'
p2223
aS'Soil mixture'
p2224
aS'Submersible water pump'
p2225
aS'Micro soaker hose kit'
p2226
aS'5-gallon bucket'
p2227
aS'Funnel'
p2228
aaS'http://guide-images.makeprojects.org/igi/BIqmRG53VFN4UE2l.standard'
p2229
aS'http://makeprojects.com/Project/Garduino-Geek-Gardening/62/1'
p2230
asS'3x3x3 LED Cube Arduino Shield'
p2231
(lp2232
(lp2233
S'PCB'
p2234
aS'27 LEDs'
p2235
aS'2 6 Pins for Arduino'
p2236
aS'2 8 Pins for Arduino'
p2237
aS'3 Resistors'
p2238
aS'Foam Guide'
p2239
aS'Short Wire'
p2240
aS'Medium Wire'
p2241
aS'Long Wire'
p2242
aS'Arduino Uno'
p2243
aaS'http://guide-images.makeprojects.org/igi/4owNSWcuXBZ4luNZ.standard'
p2244
aS'http://makeprojects.com/Project/3x3x3-LED-Cube-Arduino-Shield/2021/1'
p2245
asS'Cheap, Friendly, and Precise PCB Etching'
p2246
(lp2247
(lp2248
S'Pre-sensitized PCB'
p2249
aS'Overhead transparency'
p2250
aS'Positive developer'
p2251
aS'Vinegar'
p2252
aS'Salt'
p2253
aS'Hydrogen Peroxide (3%)'
p2254
aS'Nail polish remover'
p2255
aaS'http://guide-images.makeprojects.org/igi/MwKZyjJWZIyC2ORt.standard'
p2256
aS'http://makeprojects.com/Project/Cheap-Friendly-and-Precise-PCB-Etching/1132/1'
p2257
asS'Upgraded Indestructable LED Lanterns'
p2258
(lp2259
(lp2260
S'555 timer (cmos or normal)'
p2261
aS'1/4W 470 ohm resistor'
p2262
aS'handful of 2n3906 transistors (exact number varies depending on primary coil)'
p2263
aS'0.01uf capacitor (103)'
p2264
aS'PC board'
p2265
aS'mylar capacitor (any value above 0.005)'
p2266
aS'indicator LEDs (different colors)'
p2267
aS'rechargable AA battery'
p2268
aS'single AA battery holder'
p2269
aS'high brightness white led'
p2270
aS'1/4W 1k ohm resistor'
p2271
aS'1/4W 2.2k ohm resistor'
p2272
aS'4401, 2222, or 3904 transistor'
p2273
aS'inductor (see step 2)'
p2274
aaS'http://guide-images.makeprojects.org/igi/ZrrXsvCRlAJyYt5K.standard'
p2275
aS'http://makeprojects.com/Project/Upgraded-Indestructable-LED-Lanterns/1963/1'
p2276
asS'Make Lightning'
p2277
(lp2278
(lp2279
S'120v-9v transformer'
p2280
aS'Wire'
p2281
aS'Enclosure'
p2282
aS'terminal post'
p2283
aS'Solder'
p2284
aaS'http://guide-images.makeprojects.org/igi/OK3Hm53kHTALGlN4.standard'
p2285
aS'http://makeprojects.com/Project/Make-Lightning/916/1'
p2286
asS'PS/2/You LED Sign'
p2287
(lp2288
(lp2289
S'Make PS/2/You Kit'
p2290
aS'Dot matrix LED display modules, 8&times;32, with ribbon cable'
p2291
aS'Computer keyboard with PS/2 connection'
p2292
aS'Ardweeny microcontroller'
p2293
aS'5V voltage regulator'
p2294
aS'PS/2 port'
p2295
aS'Breadboard'
p2296
aS'Breadboard jumper wires, or solid core 22AWG wire'
p2297
aS'FTDI serial programmer'
p2298
aS'AC wall adapter'
p2299
aS'DC power jack'
p2300
aS'Power switch'
p2301
aS'Capacitor'
p2302
aS'Batteries'
p2303
aS'Battery holder'
p2304
aS'Battery holder'
p2305
aS'Wire'
p2306
aS'Electrical tape or heat shrink tubing'
p2307
aS'Acrylic/plegixglass sheet'
p2308
aS'Wood screws'
p2309
aS'Wood screws'
p2310
aS'Wood screws'
p2311
aS'Dimensional lumber'
p2312
aaS'http://guide-images.makeprojects.org/igi/QgwONqEC5CBjx6Fe.standard'
p2313
aS'http://makeprojects.com/Project/PS-2-You-LED-Sign/1069/1'
p2314
asS'Control a Servo Motor Without Programming'
p2315
(lp2316
(lp2317
aS'http://guide-images.makeprojects.org/igi/hTVWDAiimHMFGhCD.standard'
p2318
aS'http://makeprojects.com/Project/Control-a-Servo-Motor-Without-Programming/990/1'
p2319
asS'Using the Parallax RFID Reader with an Arduino'
p2320
(lp2321
(lp2322
S'Parallax RFID Reader'
p2323
aS'Arduino microcontroller'
p2324
aaS'http://guide-images.makeprojects.org/igi/CHQSGR31DBMBiaJ1.standard'
p2325
aS'http://makeprojects.com/Project/Using-the-Parallax-RFID-Reader-with-an-Arduino/617/1'
p2326
asS'USB Webcam Microscope'
p2327
(lp2328
(lp2329
S'Web Camera'
p2330
aS'Illuminated microscope'
p2331
aS'LED White'
p2332
aS'Wire Insulated'
p2333
aS'Heat-shrink tubing'
p2334
aS'Computer'
p2335
aS'Solder, lead-free'
p2336
aS'Hot glue'
p2337
aS'Magnets'
p2338
aS'Scrap of sheet metal'
p2339
aaS'http://guide-images.makeprojects.org/igi/rv3pBY21Hb3AJVOF.standard'
p2340
aS'http://makeprojects.com/Project/USB-Webcam-Microscope/963/1'
p2341
asS'TV-B-Gone Hoodie'
p2342
(lp2343
(lp2344
S'Super TV-B-Gone Kit'
p2345
aS'Hooded sweatshirt'
p2346
aS'Small quantity of conductive thread'
p2347
aS'Insulated wire'
p2348
aS'Thread'
p2349
aS'Fabric'
p2350
aS'Sew-on snaps'
p2351
aS'Heat-shrink tubing'
p2352
aaS'http://guide-images.makeprojects.org/igi/6tNxbIMDrfoVAlYk.standard'
p2353
aS'http://makeprojects.com/Project/TV-B-Gone-Hoodie/48/1'
p2354
asS'Urban Guerrilla Movie House'
p2355
(lp2356
(lp2357
S'Lumenlab Mega Projector Kit'
p2358
aS'15&quot; LCD display panel'
p2359
aS'Latex gloves, anti-static mat, and anti-static wrist strap'
p2360
aS'Aluminum channel'
p2361
aS'3&quot; ABS pipe and pipe coupler'
p2362
aS'3/8&quot; bolt, nuts (2), and washers (2)'
p2363
aS'&frac14;&quot; eyelet bolt and nuts'
p2364
aS'&frac14;&quot; threaded rod'
p2365
aS'&frac14;&quot; coupler nut'
p2366
aS'Epoxy putty'
p2367
aS'Masking tape'
p2368
aS'Sandpaper'
p2369
aS'Velcro'
p2370
aS'Lexan plastic heatshield'
p2371
aS'The Box'
p2372
aaS'http://guide-images.makeprojects.org/igi/ThYOmEP41W3ciJIT.standard'
p2373
aS'http://makeprojects.com/Project/Urban-Guerrilla-Movie-House/691/1'
p2374
asS'Dish-O-Tron 6000'
p2375
(lp2376
(lp2377
S'Resistor'
p2378
aS'Resistor'
p2379
aS'Resistor'
p2380
aS'Trim Pot'
p2381
aS'Trim Pot'
p2382
aS'Thermistor'
p2383
aS'Capacitor'
p2384
aS'Capacitor'
p2385
aS'Capacitor'
p2386
aS'Transistor'
p2387
aS'Switch'
p2388
aS'Switch'
p2389
aS'Switch'
p2390
aS'LED'
p2391
aS'555 Timer IC'
p2392
aS'9 Volt alkaline battery'
p2393
aS'Header'
p2394
aS'Too much free time'
p2395
aaS'http://guide-images.makeprojects.org/igi/rT2QUOGQfrJXqlYY.standard'
p2396
aS'http://makeprojects.com/Project/Dish-O-Tron-6000/728/1'
p2397
asS'Guitar Pickup Winder'
p2398
(lp2399
(lp2400
aS'http://guide-images.makeprojects.org/igi/gH5CNTRYfgjX4wEp.standard'
p2401
aS'http://makeprojects.com/Project/Guitar-Pickup-Winder/408/1'
p2402
asS'Wireless Power Transfer'
p2403
(lp2404
(lp2405
S'Copper wire'
p2406
aS'LED'
p2407
aS'20nf capacitor'
p2408
aS'16v ac power source'
p2409
aaS'http://guide-images.makeprojects.org/igi/4V1ELnufuPPRiWoq.standard'
p2410
aS'http://makeprojects.com/Project/Wireless-Power-Transfer/1349/1'
p2411
asS'Audio Spectrum Analyzer'
p2412
(lp2413
(lp2414
S'Stereo Cable'
p2415
aS'Stereo jack'
p2416
aS'Screw Terminal'
p2417
aS'LM386 audio op-amp'
p2418
aS'LM324 OPAMP'
p2419
aS'2N4401 NPN Transistor'
p2420
aS'LED, Red'
p2421
aS'LED, Yellow'
p2422
aS'LED, Green'
p2423
aS'1/4W 390k ohm resistor'
p2424
aS'1/4W 270k ohm resistor'
p2425
aS'1/4W 180k ohm resistor'
p2426
aS'1/4W 56k ohm resistor'
p2427
aS'1/4W 22k ohm resistor'
p2428
aS'1/4W 10k ohm resistor'
p2429
aS'1/4W 5.6k ohm resistor'
p2430
aS'1/4W 4.7k ohm resistor'
p2431
aS'1/4W 1.2k ohm resistor'
p2432
aS'1/4W 1k ohm resistor'
p2433
aS'1/4W 560 ohm resistor'
p2434
aS'1/4W 470 ohm resistor'
p2435
aS'1/4W 68 ohm resistor'
p2436
aS'1/4W 10 ohm resistor'
p2437
aS'100uF / 25v capacitor (electrolytic)'
p2438
aS'10uF / 25v capacitor (electrolytic)'
p2439
aS'1uF / 50v capacitor (electrolytic)'
p2440
aS'.47uF / 50v capacitor (electrolytic)'
p2441
aS'.22uF / 50v capacitor (electrolytic)'
p2442
aS'.01uF / 250VAC (ceramic)'
p2443
aS'100pF (ceramic)'
p2444
aaS'http://guide-images.makeprojects.org/igi/LYBh2IQtayrISdIM.standard'
p2445
aS'http://makeprojects.com/Project/Audio-Spectrum-Analyzer/1105/1'
p2446
asS'Beginning Object-Oriented Programming: Make a Simple Game With Java'
p2447
(lp2448
(lp2449
aS'http://guide-images.makeprojects.org/igi/b1NF4v3dJCoDj5Ki.standard'
p2450
aS'http://makeprojects.com/Project/Beginning-Object-Oriented-Programming-Make-a-Simple-Game-With-Java/935/1'
p2451
asS'Yobot: Arduino Yogurt Maker'
p2452
(lp2453
(lp2454
S'micro-controller'
p2455
aS'Arduino ProtoShield kit'
p2456
aS'Breadboard'
p2457
aS'Relay control PCB'
p2458
aS'Relay SPST -NO'
p2459
aS'Buzzer or Small Speaker'
p2460
aS'resistors'
p2461
aS'Switching Diode'
p2462
aS'NPN Transistor'
p2463
aS'LED'
p2464
aS'Thermistor'
p2465
aS'Moisture-seal heat-shrink end cap'
p2466
aS'Moisture-seal heat-shrink tubing'
p2467
aS'Aluminum tube'
p2468
aS'120V AC female connector'
p2469
aS'Extension cord or power cable'
p2470
aS'Crock Pot'
p2471
aS'Glass canning jars'
p2472
aS'Insulated wire'
p2473
aS'Electrical Tape'
p2474
aS'Epoxy'
p2475
aaS'http://guide-images.makeprojects.org/igi/y4MIGKEmwTvwWTVX.standard'
p2476
aS'http://makeprojects.com/Project/Yobot-Arduino-Yogurt-Maker/499/1'
p2477
asS'Turn Your Old Speakers into New'
p2478
(lp2479
(lp2480
S'Battery, 9V'
p2481
aaS'http://guide-images.makeprojects.org/igi/kRrXoTZi2SIj6KfX.standard'
p2482
aS'http://makeprojects.com/Project/Turn-Your-Old-Speakers-into-New/1339/1'
p2483
asS'Connect an iPhone, iPad, or iPod touch to Arduino with the Redpark Serial Cable'
p2484
(lp2485
(lp2486
S'Breakout Pack for Arduino and iPhone'
p2487
aS'iPhone, iPad or iPod touch'
p2488
aS'Arduino Uno'
p2489
aaS'http://guide-images.makeprojects.org/igi/AiBOXpsNkjKFG6BG.standard'
p2490
aS'http://makeprojects.com/Project/Connect-an-iPhone-iPad-or-iPod-touch-to-Arduino-with-the-Redpark-Serial-Cable/1130/1'
p2491
asS'Connector Magic'
p2492
(lp2493
(lp2494
aS'http://guide-images.makeprojects.org/igi/QjxTrDiHaRVP6ChX.standard'
p2495
aS'http://makeprojects.com/Project/Connector-Magic/1169/1'
p2496
asS'DIY $10 Drawdio'
p2497
(lp2498
(lp2499
S'8 Ohm mini speaker'
p2500
aS'Stranded Core Wire'
p2501
aS'2N3904 NPN transistor'
p2502
aS'2N3906 PNP transistor'
p2503
aS'0.01uf disk capacitor'
p2504
aS'30k resistor (orange black orange)'
p2505
aS'4.7K resistor (yellow purple red)'
p2506
aS'Battery holder for 2 AA batteries (or AAA)'
p2507
aS'Aluminum foil'
p2508
aS'Pin'
p2509
aS'Electrical Tape'
p2510
aS'Regular pencil'
p2511
aS'(optional) circuit board'
p2512
aS'(Optional) heat shrink tubing'
p2513
aS'Velcro tape'
p2514
aS'Zip tie'
p2515
aaS'http://guide-images.makeprojects.org/igi/dCRppo6iEN2gZJME.standard'
p2516
aS'http://makeprojects.com/Project/DIY-10-Drawdio/1790/1'
p2517
asS'Temperature Logger Modification'
p2518
(lp2519
(lp2520
S'3M TL20 temperature loggers'
p2521
aS'3M TL20 temp. logger USB cable'
p2522
aS'2-wire cable'
p2523
aaS'http://guide-images.makeprojects.org/igi/S1wMeVvxolEoQhC2.standard'
p2524
aS'http://makeprojects.com/Project/Temperature-Logger-Modification/519/1'
p2525
asS'Laser Harp (Frameless - Open Source)'
p2526
(lp2527
(lp2528
S'Protoboard'
p2529
aS'Arduino Uno'
p2530
aS'Green Laser Pointer'
p2531
aS'Resistor 220 ohms 1/4W'
p2532
aS'Power Supply, 5V DC, regulated 1A minimum'
p2533
aS'Power Supply, 15V DC, regulated 5A minimum'
p2534
aS'Power Supply, 9V DC, regulated 1A minimum'
p2535
aS'ULN2003'
p2536
aS'Jumper Wire'
p2537
aS'2N2222 TRANSISTOR'
p2538
aS'LDR Light Sensor'
p2539
aS'MIDI jack'
p2540
aS'5k TRIMPOT'
p2541
aS'Wine Cork Stopper'
p2542
aS'Small Mirror Piece'
p2543
aS'Green Laser Safety Goggles'
p2544
aS'White Gloves'
p2545
aS'Step motor'
p2546
aaS'http://guide-images.makeprojects.org/igi/r3XNhmtQpScPPcfo.standard'
p2547
aS'http://makeprojects.com/Project/Laser-Harp-Frameless-Open-Source-/1874/1'
p2548
asS'Circle-A-Sketch'
p2549
(lp2550
(lp2551
S'CdS Photoresistor'
p2552
aS'Potentiometer, 100k&Omega;'
p2553
aS'Jumper wires'
p2554
aS'10K Resistor'
p2555
aaS'http://guide-images.makeprojects.org/igi/VCr3taebZGPD2TPF.standard'
p2556
aS'http://makeprojects.com/Project/Circle-A-Sketch/875/1'
p2557
asS'Solar Power Camp Light'
p2558
(lp2559
(lp2560
S'Camp light'
p2561
aS'Solar power lamp'
p2562
aaS'http://guide-images.makeprojects.org/igi/mle1yyydMWyaDHAl.standard'
p2563
aS'http://makeprojects.com/Project/Solar-Power-Camp-Light/915/1'
p2564
asS'21st-Century Keytars'
p2565
(lp2566
(lp2567
S'Computer running Windows XP, Vista, or Mac OS X'
p2568
aS'Internal or external sound card'
p2569
aS'Guitar Hero controllers'
p2570
aS'Fretbuzz software'
p2571
aaS'http://guide-images.makeprojects.org/igi/FUDkRffScdPpeH5V.standard'
p2572
aS'http://makeprojects.com/Project/21st-Century-Keytars/692/1'
p2573
asS'Solar Car Subwoofer'
p2574
(lp2575
(lp2576
S'Solar panel'
p2577
aS'Charge controller'
p2578
aS'Subwoofer amplifier and speaker'
p2579
aS'Lead-acid battery'
p2580
aS'Electrical Tape'
p2581
aS'Lumber'
p2582
aS'U-bolts'
p2583
aS'Nylon insert lock nut'
p2584
aS'Flexible plastic tubing'
p2585
aS'Machine screw'
p2586
aS'Fuse'
p2587
aS'Insulated wire'
p2588
aS'Inverter'
p2589
aaS'http://guide-images.makeprojects.org/igi/2GuSkpWnKoYGMviv.standard'
p2590
aS'http://makeprojects.com/Project/Solar-Car-Subwoofer/90/1'
p2591
asS'The NES MPS - A Stage-Worthy LSDJ/Nanoloop Workstation'
p2592
(lp2593
(lp2594
S'Empty NES Shell'
p2595
aS'Gameboy advance SP'
p2596
aS'FX processor (like the Alesis PicoVerb)'
p2597
aS'Square arcade buttons'
p2598
aS'Small push button switches'
p2599
aaS'http://guide-images.makeprojects.org/igi/R46HGtANItL4fmeq.standard'
p2600
aS'http://makeprojects.com/Project/The-NES-MPS-A-Stage-Worthy-LSDJ-Nanoloop-Workstation/1890/1'
p2601
asS'Boot a New OS: Setting Up Ubuntu on Your Computer'
p2602
(lp2603
(lp2604
S'CD-R'
p2605
aS'Computer running Windows XP, Vista, or Mac OS X'
p2606
aaS'http://guide-images.makeprojects.org/igi/EHkaicWDddpcFqEj.standard'
p2607
aS'http://makeprojects.com/Project/Boot-a-New-OS-Setting-Up-Ubuntu-on-Your-Computer/945/1'
p2608
asS'PCB Etching Using Toner Transfer Method'
p2609
(lp2610
(lp2611
S'Copper Board'
p2612
aS'Laser printer'
p2613
aS'Fine sandpaper or Kitchen Scrubber'
p2614
aS'Muriatic Acid / Hydrochloric Acid (HCL)'
p2615
aS'Hydrogen Peroxide (H2O2)'
p2616
aS'Thinner / Acetone'
p2617
aS'Plastic container'
p2618
aS'Circuit diagram'
p2619
aaS'http://guide-images.makeprojects.org/igi/kbBrClWCqQPVX5CY.standard'
p2620
aS'http://makeprojects.com/Project/PCB-Etching-Using-Toner-Transfer-Method/1248/1'
p2621
asS'iHacked the iNecklace'
p2622
(lp2623
(lp2624
S'iNecklace'
p2625
aaS'http://guide-images.makeprojects.org/igi/CXKPFVnYt5vt4JQS.standard'
p2626
aS'http://makeprojects.com/Project/iHacked-the-iNecklace/1654/1'
p2627
asS'Technique:Installing the Arduino Environment'
p2628
(lp2629
(lp2630
aS'http://guide-images.makeprojects.org/igi/JAjmgSaZRjoV5h3Q.standard'
p2631
aS'http://makeprojects.com/Project/Installing-the-Arduino-Environment/1950/1'
p2632
asS'Technique:Servos Unscrambled'
p2633
(lp2634
(lp2635
aS'http://guide-images.makeprojects.org/igi/xBsdNPAjAxZAjdZO.standard'
p2636
aS'http://makeprojects.com/Project/Servos-Unscrambled/1372/1'
p2637
asS'The Diddley Bow'
p2638
(lp2639
(lp2640
aS'http://guide-images.makeprojects.org/igi/fE2PRgsjQukgyXlu.standard'
p2641
aS'http://makeprojects.com/Project/The-Diddley-Bow/14/1'
p2642
asS'Stationary Drumcycle'
p2643
(lp2644
(lp2645
S'Digital drum kit'
p2646
aS'Stationary bicycle'
p2647
aS'MDF'
p2648
aS'Bolt'
p2649
aS'Bolt'
p2650
aS'Washer'
p2651
aS'T-nut'
p2652
aS'Nut'
p2653
aS'Paper'
p2654
aS'Tape'
p2655
aS'Spray paint'
p2656
aaS'http://guide-images.makeprojects.org/igi/DFxdmJmcKEYJPX2X.standard'
p2657
aS'http://makeprojects.com/Project/Stationary-Drumcycle/1799/1'
p2658
asS'Trippy RGB Color-Mixing Nightlight'
p2659
(lp2660
(lp2661
S'(1) 5MM Red LED high brightness Mouser 696-SSL-LX5093XRC/4 http://www.mouser.com  (1) 5MM Green LED high brightness Mouser 696-SSL-LX5093UEGC  (1) 5MM Blue LED high brightness Mouser 696-SSL-LX5093USBC (20 inches) solid core hook up wire 24 gauge Mouser, Radio Shack or other  (2) 20 ohm 1/4 W resistor Mouser 66-RC07GF200J  (1) 100 ohm 1/4 W resistor Mouser 588-OD101JE  (3) 100K ohm 1/4 W resistor Mouser 291-100K-RC  (1) Perf Board Radio Shack 276-148  (1) Strip Board 1&quot; by 5/8&quot; Mouser 854-ST3U  (3) PICAXE 08M IC http://www.phanderson.com/picaxe/  (3) 8 Pin DIP IC Socket Radio Shack 276-1995 or other  (1) Charger USB/AC for MP3 Players - White http://www.amazon.com/gp/product/B000A2BLEC/ref=ox_ya_os_product'
p2662
aS'(2) 3.5 oz Jell-O Snack cups Supermarket  (1) Saran Wrap Supermarket  (1) 1 1/4&quot; by 3&quot; sheet metal strip Home Depot or Hardware store (1 ft) Double side foam tape Hardware store or Radio Shack  (1) scrap piece of cardboard about 3&quot; dia. Supermarket'
p2663
aaS'http://guide-images.makeprojects.org/igi/lG4rJIxTBXlGN2sm.standard'
p2664
aS'http://makeprojects.com/Project/Trippy-RGB-Color-Mixing-Nightlight/1473/1'
p2665
asS'Glowing Paper Pumpkins'
p2666
(lp2667
(lp2668
aS'http://guide-images.makeprojects.org/igi/fWZxAthuONwyrAo2.standard'
p2669
aS'http://makeprojects.com/Project/Glowing-Paper-Pumpkins/1492/1'
p2670
asS'Technique:Installing Arduino Mega ADK drivers for Arduino 0022'
p2671
(lp2672
(lp2673
aS'http://guide-images.makeprojects.org/igi/FRfeQUhw6EWhKIdL.standard'
p2674
aS'http://makeprojects.com/Project/Installing-Arduino-Mega-ADK-drivers-for-Arduino-0022/1240/1'
p2675
asS'Arduino Data-Logging Shield Kit'
p2676
(lp2677
(lp2678
S'Data Logging Shield for Arduino'
p2679
aS'3.3V Regulator'
p2680
aS'Real Time Clock IC'
p2681
aS'Level Shifter IC for SD Card'
p2682
aS'Watch Crystal'
p2683
aS'SD Card Holder'
p2684
aS'3mm Red LED'
p2685
aS'3mm Green LED'
p2686
aS'10K Resistor'
p2687
aS'1.0K Resistor'
p2688
aS'2.2K Resistor'
p2689
aS'0.1uF ceramic capacitor'
p2690
aS'100uF/6.3V capacitor'
p2691
aS'Tactile switch'
p2692
aS'36-Pin Male Header'
p2693
aS'12mm 3V Coin Cell'
p2694
aS'12mm Coin Cell Holder'
p2695
aS'PCB'
p2696
aaS'http://guide-images.makeprojects.org/igi/W2xPjubAclT5jvNL.standard'
p2697
aS'http://makeprojects.com/Project/Arduino-Data-Logging-Shield-Kit/949/1'
p2698
asS'The $5 Cracker Box Amp'
p2699
(lp2700
(lp2701
S'Cracker box'
p2702
aS'Toggle switch'
p2703
aS'Battery'
p2704
aS'Battery connector'
p2705
aS'Capacitor'
p2706
aS'Capacitor'
p2707
aS'Capacitor'
p2708
aS'Capacitor'
p2709
aS'Resistor'
p2710
aS'Hook-up wire'
p2711
aS'Potentiometer'
p2712
aS'Rheostat'
p2713
aS'Audio amplifier chip'
p2714
aS'IC socket'
p2715
aS'Mono phone jack'
p2716
aS'Chicken head knob'
p2717
aS'Prototyping PC board'
p2718
aS'Speaker'
p2719
aS'Speaker grill'
p2720
aaS'http://guide-images.makeprojects.org/igi/GdRl5yPSRSyAYnJt.standard'
p2721
aS'http://makeprojects.com/Project/The-5-Cracker-Box-Amp/64/1'
p2722
asS'Chladni  Plate'
p2723
(lp2724
(lp2725
S'Speaker'
p2726
aS'Wire-wrap or magnet wire'
p2727
aS'Spray paint'
p2728
aS'Signal source'
p2729
aS'Amplifier'
p2730
aS'Epoxy glue'
p2731
aS'Aluminum tape'
p2732
aS'Packing tape'
p2733
aS'Plastic cups'
p2734
aS'Graphite powder'
p2735
aS'Rigid styrofoam sheet'
p2736
aS'Plastic tubing'
p2737
aS'Thin metal sheet'
p2738
aS'Nylon bolt'
p2739
aS'Powder'
p2740
aS'Awl or nail and hammer'
p2741
aaS'http://guide-images.makeprojects.org/igi/EiHqKvhpkLUbo3wR.standard'
p2742
aS'http://makeprojects.com/Project/Chladni-Plate/790/1'
p2743
asS'Easy Sunburst Guitar'
p2744
(lp2745
(lp2746
aS'http://guide-images.makeprojects.org/igi/fm25AfJmfHPnhAqv.standard'
p2747
aS'http://makeprojects.com/Project/Easy-Sunburst-Guitar/1981/1'
p2748
asS'USB Key Makeovers'
p2749
(lp2750
(lp2751
S'USB flash drive'
p2752
aS'Plastic wrap'
p2753
aS'Glue'
p2754
aS'Something to make a new enclosure'
p2755
aS'Wood Finish'
p2756
aaS'http://guide-images.makeprojects.org/igi/c6g1f3HQpguXXOcQ.standard'
p2757
aS'http://makeprojects.com/Project/USB-Key-Makeovers/1266/1'
p2758
asS'Solar USB Charger'
p2759
(lp2760
(lp2761
S'Solder, lead-free'
p2762
aS'Rectifier diode assortment 25 piece'
p2763
aS'Zener diode, 5.1V, 1N4733A'
p2764
aS'Solar cell, encapsulated module'
p2765
aS'Extension cable, USB A/A'
p2766
aS'Heat shrink tubing, 6&quot;'
p2767
aaS'http://guide-images.makeprojects.org/igi/hqAmaWobYLXmrSrk.standard'
p2768
aS'http://makeprojects.com/Project/Solar-USB-Charger/1115/1'
p2769
asS'Arduino LED Exploration'
p2770
(lp2771
(lp2772
S'Arduino microcontroller'
p2773
aaS'http://guide-images.makeprojects.org/igi/nPqcLJgldb2ERNpY.standard'
p2774
aS'http://makeprojects.com/Project/Arduino-LED-Exploration/1235/1'
p2775
asS'Using Arduino to Create an Online Reactor Reactivity Meter'
p2776
(lp2777
(lp2778
S'Cerebot MX7ck board, OLED Screen and USB cable to computer using UART'
p2779
aaS'http://guide-images.makeprojects.org/igi/sbLXF4TGGJxHIUAJ.standard'
p2780
aS'http://makeprojects.com/Project/Using-Arduino-to-Create-an-Online-Reactor-Reactivity-Meter/2116/1'
p2781
asS'High-Power Blinking LED'
p2782
(lp2783
(lp2784
aS'http://guide-images.makeprojects.org/igi/ue4uGbDBs3gfJ44k.standard'
p2785
aS'http://makeprojects.com/Project/High-Power-Blinking-LED/811/1'
p2786
asS'Game Show Buttons'
p2787
(lp2788
(lp2789
S'Resistor, 500-piece assortment, 1/4 Watt'
p2790
aS'High-Brightness LED red'
p2791
aS'555 Timer IC'
p2792
aS'Breadboard Wire Kit'
p2793
aS'6&quot; Modular IC Breadboard'
p2794
aS'Quad OR Gate (74HC32)'
p2795
aS'SPTD Submini Toggle Switch'
p2796
aS'Pushbutton'
p2797
aS'Capacitor ceramic 0.01&micro;F'
p2798
aS'NPN transistors, 15 pack'
p2799
aaS'http://guide-images.makeprojects.org/igi/vE5XNVvmEBnUAE2f.standard'
p2800
aS'http://makeprojects.com/Project/Game-Show-Buttons/1916/1'
p2801
asS'Small Word Clock'
p2802
(lp2803
(lp2804
S'arduino nano 3.0'
p2805
aS'DS3231 RTC'
p2806
aS'MAX7219 LED Controller'
p2807
aS'5mm momentary button/switch'
p2808
aS'resistors (value depends on LEDs used)'
p2809
aS'4.7k Resistors (pull-down resistors)'
p2810
aS'.1 uf Ceramic Capacitor'
p2811
aS'10 uf Electrolytic Capacitor'
p2812
aS'White 1210 SMD LED'
p2813
aS'DIP socket for Arduino Nano'
p2814
aS'Double-sided photoresist PCB 6in x 6in'
p2815
aS'Photoresist PCB 4in x 6in'
p2816
aS'6 1/8 in x 6 1/8 in clear acrylic sheet'
p2817
aS'Frame for the clock'
p2818
aS'Stiff cardboard (not corrugated)'
p2819
aS'Tracing paper (for light diffusion)'
p2820
aS'Power Supply, 5V DC, regulated 1A minimum'
p2821
aS'Rare earth magnets'
p2822
aS'Hookup wire, solid core'
p2823
aS'Solder Flux'
p2824
aS'CR2032 coin cell battery'
p2825
aS'CR2032 coin cell battery holder'
p2826
aS'10mm vinyl bumpers'
p2827
aS'DC barrel jack'
p2828
aaS'http://guide-images.makeprojects.org/igi/TxgWgYBeFXFydaAQ.standard'
p2829
aS'http://makeprojects.com/Project/Small-Word-Clock/2135/1'
p2830
asS'Technique:Fun with Transistors'
p2831
(lp2832
(lp2833
aS'http://guide-images.makeprojects.org/igi/SIxuZNDQK1G4rMj3.standard'
p2834
aS'http://makeprojects.com/Project/Fun-with-Transistors/1456/1'
p2835
asS'Ball-in-Cage Alarm Switch'
p2836
(lp2837
(lp2838
S'Rod'
p2839
aS'Dowel'
p2840
aS'PVC pipe cap'
p2841
aS'Ball bearing'
p2842
aS'Cable'
p2843
aaS'http://guide-images.makeprojects.org/igi/5mZUu5w3eQmAtSbw.standard'
p2844
aS'http://makeprojects.com/Project/Ball-in-Cage-Alarm-Switch/240/1'
p2845
asS'Infinity Light'
p2846
(lp2847
(lp2848
S'DC motor'
p2849
aS'Diode'
p2850
aS'Capacitor(s)'
p2851
aS'LED'
p2852
aaS'http://guide-images.makeprojects.org/igi/634BdmdAm3KZR5Bl.standard'
p2853
aS'http://makeprojects.com/Project/Infinity-Light/1120/1'
p2854
asS'Flash Capacitor'
p2855
(lp2856
(lp2857
S'Camera'
p2858
aaS'http://guide-images.makeprojects.org/igi/TYIleZbnSBwPdfyx.standard'
p2859
aS'http://makeprojects.com/Project/Flash-Capacitor/799/1'
p2860
asS'Hacking The Spy Video Trakr'
p2861
(lp2862
(lp2863
aS'http://guide-images.makeprojects.org/igi/uVSexA42WoF4UjkP.standard'
p2864
aS'http://makeprojects.com/Project/Hacking-The-Spy-Video-Trakr/1462/1'
p2865
asS'Playful Puppy Robot'
p2866
(lp2867
(lp2868
S'Quad Bot robot chassis'
p2869
aS'Pan / Tilt kit'
p2870
aS'IR Compound Eye'
p2871
aS'Magician Robot Controller'
p2872
aS'Jumper Wire Pack'
p2873
aS'Servo extension cable'
p2874
aS'Cable ties'
p2875
aS'Li-Po battery pack'
p2876
aS'Spacers'
p2877
aS'Spacers'
p2878
aaS'http://guide-images.makeprojects.org/igi/LZIXbLf5LrQrlPGE.standard'
p2879
aS'http://makeprojects.com/Project/Playful-Puppy-Robot/1375/1'
p2880
asS'Dispatchatron'
p2881
(lp2882
(lp2883
aS'http://guide-images.makeprojects.org/igi/NQTpXXwXyLd3nkrm.standard'
p2884
aS'http://makeprojects.com/Project/Dispatchatron/1786/1'
p2885
asS'Arduino Morse Code Flasher'
p2886
(lp2887
(lp2888
S'Arduino Uno(or other arduino board)'
p2889
aS'LED, Red'
p2890
aaS'http://guide-images.makeprojects.org/igi/giBTAA5kRQXiCYYj.standard'
p2891
aS'http://makeprojects.com/Project/Arduino-Morse-Code-Flasher/1425/1'
p2892
asS'&quot;Chopsticks&quot; the Spider Robot'
p2893
(lp2894
(lp2895
S'Spider controller with HD servo shield'
p2896
aS'12Kg/cm servo'
p2897
aS'5Kg/cm servo'
p2898
aS'self tapping screws'
p2899
aS'self tapping screws'
p2900
aS'self tapping screws'
p2901
aS'Pan / Tilt kit'
p2902
aS'Polymorph'
p2903
aS'disposable Chopsticks'
p2904
aS'7.2V / 7.4V Rechargeable battery pack'
p2905
aS'High current switch'
p2906
aS'Fuse or circuit breaker'
p2907
aS'Cable ties'
p2908
aS'Cable ties'
p2909
aaS'http://guide-images.makeprojects.org/igi/eRBx5hLvE2jXsTD6.standard'
p2910
aS'http://makeprojects.com/Project/-Chopsticks-the-Spider-Robot/748/1'
p2911
asS'The Micro-Synth'
p2912
(lp2913
(lp2914
S'555 timer chip'
p2915
aS'Small 8 ohm speaker'
p2916
aS'Small power connector (female)'
p2917
aS'Small power connector (male)'
p2918
aS'CdS Photoresistor'
p2919
aS'0.022 uF Ceramic cap'
p2920
aS'33K ohm resistor'
p2921
aS'100 Ohm Resistor'
p2922
aS'Scrap lead clippings'
p2923
aS'9V battery clip'
p2924
aaS'http://guide-images.makeprojects.org/igi/IcIT2EPJb2GjOif3.standard'
p2925
aS'http://makeprojects.com/Project/The-Micro-Synth/1961/1'
p2926
asS'Arduino LCD Birthday Card'
p2927
(lp2928
(lp2929
S'Arduino'
p2930
aS'LCD-Display'
p2931
aS'10K Potentiometer'
p2932
aS'Hook-up wire'
p2933
aS'Solderless breadboard'
p2934
aaS'http://guide-images.makeprojects.org/igi/QsymnWYWmPVuwn2q.standard'
p2935
aS'http://makeprojects.com/Project/Arduino-LCD-Birthday-Card/888/1'
p2936
asS'Small Amp'
p2937
(lp2938
(lp2939
S'LM386 audio op-amp'
p2940
aS'Wire'
p2941
aS'9 Volt alkaline battery'
p2942
aS'9 volt battery snap connector'
p2943
aS'220uF/35V capacitor'
p2944
aS'.047uF 100v capacitor'
p2945
aS'10 Ohm, 1/8 Watt resistor'
p2946
aS'Mono 1/4&quot; Phone Jack (female)'
p2947
aaS'http://guide-images.makeprojects.org/igi/atwE51jQQAopC2Vh.standard'
p2948
aS'http://makeprojects.com/Project/Small-Amp/1804/1'
p2949
asS'Sculpting Circuits'
p2950
(lp2951
(lp2952
S'Batteries'
p2953
aS'Water'
p2954
aS'LED'
p2955
aS'Flour'
p2956
aS'Salt'
p2957
aS'Cream of tartar'
p2958
aS'Food coloring'
p2959
aS'Sugar'
p2960
aS'Vegetable oil'
p2961
aS'Alum'
p2962
aS'Distilled water'
p2963
aaS'http://guide-images.makeprojects.org/igi/KCf2n32ZrdAEqFCl.standard'
p2964
aS'http://makeprojects.com/Project/Sculpting-Circuits/328/1'
p2965
asS'Spazzi: A Solenoid Powered Dancebot'
p2966
(lp2967
(lp2968
S'Jumper wires'
p2969
aS'Arduino Uno'
p2970
aS'Transistors'
p2971
aS'Mini breadboard'
p2972
aS'MakerShield'
p2973
aS'resistors'
p2974
aS'MAKE Spazzi Electronics Bundle'
p2975
aS'Compression spring'
p2976
aS'Latex rubber cord'
p2977
aS'3D-printed ABS body parts (3) and eyes (optional, 2)'
p2978
aS'Cable ties'
p2979
aS'Solenoids'
p2980
aS'Power supply'
p2981
aS'Diodes'
p2982
aS'Electrical Tape'
p2983
aaS'http://guide-images.makeprojects.org/igi/AjAXiXjvWaFi2O6l.standard'
p2984
aS'http://makeprojects.com/Project/Spazzi-A-Solenoid-Powered-Dancebot/1074/1'
p2985
asS'Custom Fit Earbuds'
p2986
(lp2987
(lp2988
S'Radians custom fitted earplug kit'
p2989
aS'Earbud headphones'
p2990
aaS'http://guide-images.makeprojects.org/igi/sF2DAxsTqKM2NK2L.standard'
p2991
aS'http://makeprojects.com/Project/Custom-Fit-Earbuds/199/1'
p2992
asS'Simple Halloween Guillotine'
p2993
(lp2994
(lp2995
aS'http://guide-images.makeprojects.org/igi/hBXGA2CVt1HV1Wyn.standard'
p2996
aS'http://makeprojects.com/Project/Simple-Halloween-Guillotine/1518/1'
p2997
asS'Particleboard Amp Enhancer'
p2998
(lp2999
(lp3000
S'Caulk'
p3001
aS'Donor furniture'
p3002
aS'Wood'
p3003
aS'Particleboard screws'
p3004
aS'Caulking gun'
p3005
aS'Weather stripping'
p3006
aS'Weather stripping'
p3007
aaS'http://guide-images.makeprojects.org/igi/ikWbRuWQYqRUh6TR.standard'
p3008
aS'http://makeprojects.com/Project/Particleboard-Amp-Enhancer/36/1'
p3009
asS'USB Flash Memory Drive'
p3010
(lp3011
(lp3012
S'Hard disk drive'
p3013
aS'USB hub'
p3014
aS'USB flash drive'
p3015
aS'USB cable'
p3016
aS'Insulating tape'
p3017
aaS'http://guide-images.makeprojects.org/igi/PBykVoUuRNTTG5ID.standard'
p3018
aS'http://makeprojects.com/Project/USB-Flash-Memory-Drive/56/1'
p3019
asS'Fun Terminal Hacks for Mac'
p3020
(lp3021
(lp3022
S'Any computer running Mac OS X'
p3023
aaS'http://guide-images.makeprojects.org/igi/LSmwEWWCKSwaKWJ6.standard'
p3024
aS'http://makeprojects.com/Project/Fun-Terminal-Hacks-for-Mac/1956/1'
p3025
asS'Stitch Action Photography'
p3026
(lp3027
(lp3028
S'Camera'
p3029
aS'Computer'
p3030
aaS'http://guide-images.makeprojects.org/igi/r5cw3bjNJHXftVak.standard'
p3031
aS'http://makeprojects.com/Project/Stitch-Action-Photography/1011/1'
p3032
asS'Radar Speed Detector'
p3033
(lp3034
(lp3035
S'Hot Wheels Radar Gun'
p3036
aS'Project enclosure'
p3037
aS'Alkaline battery'
p3038
aS'Rocker switch'
p3039
aS'Shielded cable'
p3040
aS'Steel wire'
p3041
aS'DIN 5-pin male plug'
p3042
aS'DIN 5-pin female receptacle'
p3043
aS'Steel bar'
p3044
aS'PVC document tube'
p3045
aS'PVC threaded nipple'
p3046
aS'Shrub sprinkler head'
p3047
aS'Bolts'
p3048
aS'Sheet metal screws'
p3049
aS'Machine screw'
p3050
aS'Camera tripod'
p3051
aS'Double-sided tape'
p3052
aaS'http://guide-images.makeprojects.org/igi/Yl3jKbSculaOIdoE.standard'
p3053
aS'http://makeprojects.com/Project/Radar-Speed-Detector/330/1'
p3054
asS'iPhone Keyboard Stand'
p3055
(lp3056
(lp3057
S'Velcro'
p3058
aS'Plexiglass'
p3059
aS'Epoxy'
p3060
aaS'http://guide-images.makeprojects.org/igi/NOWNDtP2IJIhVa2B.standard'
p3061
aS'http://makeprojects.com/Project/iPhone-Keyboard-Stand/344/1'
p3062
asS'Hacking the Brain Machine'
p3063
(lp3064
(lp3065
S'Brain Machine kit'
p3066
aS'Make project tin'
p3067
aS'Panel mount headphone jack'
p3068
aS'2-line Phone cord'
p3069
aS'Rubber grommet'
p3070
aS'On/off switch'
p3071
aS'card stock'
p3072
aS'heatshrink tubing'
p3073
aaS'http://guide-images.makeprojects.org/igi/2RInQhXBLEnxOAsY.standard'
p3074
aS'http://makeprojects.com/Project/Hacking-the-Brain-Machine/533/1'
p3075
asS'Kinect Privacy Guard from Kinect Package Material'
p3076
(lp3077
(lp3078
S'Foam strip from Kinect package'
p3079
aaS'http://guide-images.makeprojects.org/igi/OjXMDVkYWglSQCSs.standard'
p3080
aS'http://makeprojects.com/Project/Kinect-Privacy-Guard-from-Kinect-Package-Material/483/1'
p3081
asS'HAB APRS Tracker'
p3082
(lp3083
(lp3084
S'Clear adhesive labels'
p3085
aS'Byonic&rsquo;s MT-300'
p3086
aS'Altoids sized tin'
p3087
aS'DB-9 solder cup'
p3088
aS'Double sided tape'
p3089
aS'DC power connector'
p3090
aS'SMA bulkhead connector'
p3091
aaS'http://guide-images.makeprojects.org/igi/FfWZOJWVQLdP2DHb.standard'
p3092
aS'http://makeprojects.com/Project/HAB-APRS-Tracker/1936/1'
p3093
asS'Time&#039;s Ticking'
p3094
(lp3095
(lp3096
aS'http://guide-images.makeprojects.org/igi/Cd1dovk3WLYj3L1H.standard'
p3097
aS'http://makeprojects.com/Project/Time-s-Ticking/560/1'
p3098
asS'3D Scanning System'
p3099
(lp3100
(lp3101
S'Aluminum sheet'
p3102
aS'Spray mount adhesive'
p3103
aS'USB socket'
p3104
aS'Copper pipe'
p3105
aS'Plastic ball casters'
p3106
aS'Bolts'
p3107
aS'Bolts'
p3108
aS'Photographic gimbal head'
p3109
aS'Socket'
p3110
aS'Mono jack socket'
p3111
aS'Hook-up wire'
p3112
aS'Diode'
p3113
aS'Bipolar stepper driver/motor combo'
p3114
aS'Plastic worm drive'
p3115
aS'Nylon gear'
p3116
aS'Steel shaft'
p3117
aS'Flange ball bearing'
p3118
aS'Project enclosure'
p3119
aS'Power supply'
p3120
aS'Aluminum sheet'
p3121
aS'USB A to A cable'
p3122
aS'Voltage regulator IC'
p3123
aS'Resistor'
p3124
aS'Cast phono plugs'
p3125
aS'Copper pipe'
p3126
aS'Laser line generator'
p3127
aS'Plumbing end caps'
p3128
aS'Hot glue'
p3129
aaS'http://guide-images.makeprojects.org/igi/ufUZqj4jpK1OX5rS.standard'
p3130
aS'http://makeprojects.com/Project/3D-Scanning-System/98/1'
p3131
asS'Build a MakerShield'
p3132
(lp3133
(lp3134
aS'http://guide-images.makeprojects.org/igi/BjLipOJWdDmlVSSP.standard'
p3135
aS'http://makeprojects.com/Project/Build-a-MakerShield/432/1'
p3136
asS'Easy-Run Addressable LED Pixels'
p3137
(lp3138
(lp3139
aS'http://guide-images.makeprojects.org/igi/oaOExe2NFLdhQqlE.standard'
p3140
aS'http://makeprojects.com/Project/Easy-Run-Addressable-LED-Pixels/1346/1'
p3141
asS'Mini Gun Madness'
p3142
(lp3143
(lp3144
S'Cordless tool with large motor and gearing or speed control'
p3145
aS'High intensity LEDs'
p3146
aS'poster board sheet'
p3147
aS'1/4&quot; plywood (~3 sq ft)'
p3148
aS'metal repair tape'
p3149
aS'Two wire connector'
p3150
aS'1/4&quot; copper tubing (~3 ft)'
p3151
aS'copper brackets'
p3152
aS'Gorilla Glue'
p3153
aS'Wood Glue or Epoxy'
p3154
aaS'http://guide-images.makeprojects.org/igi/uPDQLG4rTNIfR5vY.standard'
p3155
aS'http://makeprojects.com/Project/Mini-Gun-Madness/1463/1'
p3156
asS'Pixelmusic 3000'
p3157
(lp3158
(lp3159
S'Stereo mini (3.5mm) cable'
p3160
aS'Mini-to-RCA A/V cable'
p3161
aS'Propeller 40-pin microcontroller'
p3162
aS'24LC 256 256K serial EEPRO M memory'
p3163
aS'Microchip MCP3208 analog-to-digital converter (ADC)'
p3164
aS'LM2937 3.3V voltage regulator'
p3165
aS'5MHz crystal'
p3166
aS'Capacitors: 0.1&mu;F and 22&mu;F'
p3167
aS'Resistors: 270&Omega; (2), 560&Omega;, 1.1k&Omega;, 4.7k&Omega; (2), and 10k&Omega;'
p3168
aS'Red LED'
p3169
aS'Circuit board headers: 3-pin and 4-pin'
p3170
aS'40-pin IC socket'
p3171
aS'Perf board'
p3172
aS'6V 300mA DC power supply'
p3173
aS'DC power jack to PCB adapter'
p3174
aS'Ribbon cable'
p3175
aS'22-gauge solid hookup wire'
p3176
aS'Prop Plug programming connector'
p3177
aS'Slide switch'
p3178
aS'10k&Omega; trimpot variable resistor'
p3179
aS'Serpac A-21 enclosure, black'
p3180
aS'Wood-grain contact paper'
p3181
aS'Rubber feet (4)'
p3182
aaS'http://guide-images.makeprojects.org/igi/lRy3VZ1YvMeNocQW.standard'
p3183
aS'http://makeprojects.com/Project/Pixelmusic-3000/606/1'
p3184
asS'The Mind Surfer'
p3185
(lp3186
(lp3187
S'Computer'
p3188
aS'Nintendo Wii Remote'
p3189
aS'Bike helmet'
p3190
aS'String'
p3191
aS'Rubber bands'
p3192
aS'Duct tape'
p3193
aS'Tape'
p3194
aaS'http://guide-images.makeprojects.org/igi/WPLdv1VYpQjw3ZWM.standard'
p3195
aS'http://makeprojects.com/Project/The-Mind-Surfer/1442/1'
p3196
asS'Build a POSC Synthesizer'
p3197
(lp3198
(lp3199
S'POSC kit'
p3200
aS'Battery'
p3201
aS'Switch enclosure'
p3202
aS'Acrylic'
p3203
aS'O-rings'
p3204
aS'Masking tape'
p3205
aS'Epoxy'
p3206
aaS'http://guide-images.makeprojects.org/igi/NokHvIowA1BsVkUs.standard'
p3207
aS'http://makeprojects.com/Project/Build-a-POSC-Synthesizer/126/1'
p3208
asS'Treasure Finder'
p3209
(lp3210
(lp3211
S'1/4&quot; plywood'
p3212
aS"3/4&quot; hardwood dowel (3-4' long)"
p3213
aS'1/2&quot; hardwood dowel (2&quot; long&quot;)'
p3214
aS'1/4&quot; hardwood dowel (4&quot; long)'
p3215
aS'Threaded PVC pipe connector (1/2&quot; bore)'
p3216
aS'Lock nut, brass, 1/2&quot; pipe'
p3217
aS'Copper clad PC board, single-sided 4 1/2&quot; x 6 1/8&quot;'
p3218
aS'Resistor Assortment, 1/8 watt, 500-piece'
p3219
aS'Capacitor, 0.1&mu;F'
p3220
aS'Capacitor, 0.01&mu;F'
p3221
aS'Capacitor, 220&mu;F electrolytic'
p3222
aS'Magnet wire, 26 gauge'
p3223
aS'Transistor, NPN, 2N3904'
p3224
aS'Wire, hookup, 22 gauge stranded'
p3225
aS"Speaker wire, 4'"
p3226
aS'Speaker, small 8&Omega;'
p3227
aS'Switch, SPST toggle'
p3228
aS'Potentiometer, 5k&Omega;, audio taper'
p3229
aS'Audio jack, 1/8&quot;, mono, panel mount'
p3230
aS'Headphones, 1/8&quot; plug, mono or stereo'
p3231
aS'Battery, 9V'
p3232
aS'Snap connector for 9V battery'
p3233
aS'Wood glue'
p3234
aS'Epoxy'
p3235
aaS'http://guide-images.makeprojects.org/igi/A5eJBRZ6aFhcLlWu.standard'
p3236
aS'http://makeprojects.com/Project/Treasure-Finder/1113/1'
p3237
asS'CNC Mini Mill Conversion Kit (Hardware)'
p3238
(lp3239
(lp3240
S'HiTorque Mini Mill'
p3241
aS'Mini-Mill CNC kit #2'
p3242
aS'Heli-Cal zero backlash coup'
p3243
aS'3-Axis Monster Mill Stepper Motor Driver Kit'
p3244
aaS'http://guide-images.makeprojects.org/igi/xcqKpfKpRHGrKCcY.standard'
p3245
aS'http://makeprojects.com/Project/CNC-Mini-Mill-Conversion-Kit-Hardware-/1295/1'
p3246
asS'(Very) Simple Stereo Audio Switch'
p3247
(lp3248
(lp3249
aS'http://guide-images.makeprojects.org/igi/b6WaVJtxBDtfBtEa.standard'
p3250
aS'http://makeprojects.com/Project/-Very-Simple-Stereo-Audio-Switch/2115/1'
p3251
asS'DC Boarduino (Arduino Clone) Kit'
p3252
(lp3253
(lp3254
S'IC socket'
p3255
aS'IC ATMEGA328P'
p3256
aS'16.00 MHz ceramic oscillator'
p3257
aS'2.1mm Power Jack'
p3258
aS'1N4001 diode'
p3259
aS'5V regulator'
p3260
aS'0.1uF ceramic capacitor'
p3261
aS'47uF / 25V  capacitor'
p3262
aS'100uF/6.3V capacitor'
p3263
aS'10K Resistor'
p3264
aS'1K Resistor'
p3265
aS'Green and Red LED'
p3266
aS'6mm tactile switch button'
p3267
aS'6-Pin ICSP Header'
p3268
aS'40 pin male header'
p3269
aS'Jumper'
p3270
aS'Circuit board'
p3271
aaS'http://guide-images.makeprojects.org/igi/AorZjTeyBRqnIndl.standard'
p3272
aS'http://makeprojects.com/Project/DC-Boarduino-Arduino-Clone-Kit/724/1'
p3273
asS'Arduino LED Fuel Gauge'
p3274
(lp3275
(lp3276
S'Arduino or clone'
p3277
aS'misc resistors'
p3278
aS'LED, Red'
p3279
aS'LED, Blue'
p3280
aaS'http://guide-images.makeprojects.org/igi/EJMIMKIUAPSyWuIW.standard'
p3281
aS'http://makeprojects.com/Project/Arduino-LED-Fuel-Gauge/1639/1'
p3282
asS'LED Light Brick'
p3283
(lp3284
(lp3285
S'Circuit board from the light brick kit'
p3286
aS'PIC 16F916 microcontroller'
p3287
aS'LEDs 5mm 20mA wide viewing angle 0.100&quot; lead spacing'
p3288
aS'100&Omega; resistors &frac14; watt 5 carbon film'
p3289
aS'20k&Omega; resistors &frac14; watt 5 carbon film'
p3290
aS'10&mu;F capacitor tantalum 16 volts 0.1&quot; lead spacing C1'
p3291
aS'0.1&mu;F capacitor monolithic 0.100&quot; lead spacing C2'
p3292
aS'Rolling ball tilt switch 0.100&quot; lead spacing SW1'
p3293
aS'DC power connector 2.1mm ID coaxial J1'
p3294
aS'Rubber bumpers or feet'
p3295
aS'DC power supply'
p3296
aS'12&quot; length of 14 solid wire'
p3297
aS'22pF capacitors monolithic or ceramic disc 0.100&quot; lead spacing (2 optional) C3 C4'
p3298
aS'Single-row header connector 6-pin 0.100&quot;'
p3299
aS'Silicone RT V Mold- Making System 1lb silicone and 0.1lb catalyst'
p3300
aS'Lego bricks'
p3301
aS'Self-releasing polypropylene mold 3&quot;&times;5&quot;&times;15&quot;'
p3302
aS'Clear-Lite polyester casting resin 16oz'
p3303
aS'MEKP liquid catalyst &frac12;oz'
p3304
aS'Paper cups 12oz or 16oz'
p3305
aS'Stirring sticks'
p3306
aS'Clear gloss resin spray'
p3307
aaS'http://guide-images.makeprojects.org/igi/5LGn3lR3L55qWnaf.standard'
p3308
aS'http://makeprojects.com/Project/LED-Light-Brick/358/1'
p3309
asS'Arduino Mega PIR Alarm'
p3310
(lp3311
(lp3312
S'Arduino Mega'
p3313
aS'Parallax PIR sensor'
p3314
aS'8 Ohm mini speaker'
p3315
aaS'http://guide-images.makeprojects.org/igi/uyWUFHqLbCnYd4uA.standard'
p3316
aS'http://makeprojects.com/Project/Arduino-Mega-PIR-Alarm/1345/1'
p3317
asS'Laser Harp'
p3318
(lp3319
(lp3320
S'Arduino microcontroller'
p3321
aS'Laser pointer'
p3322
aS'DC power source, switched, 8V - 12V, 2 - 3 amps'
p3323
aS'Adjustable voltage regulator'
p3324
aS'7805 Voltage Regulator'
p3325
aS'LM324 quad op-amp chips'
p3326
aS'LED, Red'
p3327
aS'Resistors, 1&frasl;4-watt: 220&Omega;, 1.5k&Omega;, 3.9k&Omega;, 68k&Omega;, 1M&Omega;'
p3328
aS'Capacitors: 0.1&mu;F'
p3329
aS'Capacitors: 300&mu;F tantalum'
p3330
aS'Photocell, 100mW'
p3331
aS'Sharp GP2D12 or GP2D120 IR range sensors'
p3332
aS'Tumbled rocks, translucent'
p3333
aS'Potentiometer, 100k&Omega;'
p3334
aS'5-pin DIN (MIDI) connector'
p3335
aS'Blank circuit boards, dual mini and medium'
p3336
aS'24-gauge hookup wire various colors'
p3337
aS'Heat-shrink tubing'
p3338
aS'8-pin headers (optional)'
p3339
aS'Aluminum tubes, 1&frasl;2&quot; &times; 36&quot;'
p3340
aS'Wood and screws 1&frasl;2&quot; fiberboard'
p3341
aS'Black paint'
p3342
aaS'http://guide-images.makeprojects.org/igi/4QNSLmTUpQvDIRlK.standard'
p3343
aS'http://makeprojects.com/Project/Laser-Harp/690/1'
p3344
asS'Hand-Crank USB Charger'
p3345
(lp3346
(lp3347
S'hand crank flashlight'
p3348
aaS'http://guide-images.makeprojects.org/igi/dDNn3GbGFtOVPb4r.standard'
p3349
aS'http://makeprojects.com/Project/Hand-Crank-USB-Charger/1931/1'
p3350
asS'Random Music Box'
p3351
(lp3352
(lp3353
S'PIC16F685 microprocessor'
p3354
aS'Op-amp chip'
p3355
aS'Capacitor'
p3356
aS'Potentiometer'
p3357
aS'Resistor'
p3358
aS'Speaker'
p3359
aS'Male header'
p3360
aS'DIP socket'
p3361
aS'Hook-up wire'
p3362
aS'Breadboard'
p3363
aS'Power supply'
p3364
aS'Masking tape'
p3365
aS'Drum and drumstick'
p3366
aS'Servo'
p3367
aaS'http://guide-images.makeprojects.org/igi/NKfIHStPnGAOROFR.standard'
p3368
aS'http://makeprojects.com/Project/Random-Music-Box/33/1'
p3369
asS'DSLR Camera Case from an Old Toolbox'
p3370
(lp3371
(lp3372
aS'http://guide-images.makeprojects.org/igi/UsSyWQEiy2y1UACB.standard'
p3373
aS'http://makeprojects.com/Project/DSLR-Camera-Case-from-an-Old-Toolbox/1932/1'
p3374
asS'Halloween Skeleton'
p3375
(lp3376
(lp3377
S'Arduino Duemilanove'
p3378
aS'Servo (generic)'
p3379
aS'Breadboard kit'
p3380
aS'Halloween mask'
p3381
aS'LEDs'
p3382
aaS'http://guide-images.makeprojects.org/igi/RKgeJalHJgYD4JYY.standard'
p3383
aS'http://makeprojects.com/Project/Halloween-Skeleton/1559/1'
p3384
asS'LED Jellies Lamp Stand'
p3385
(lp3386
(lp3387
S'wooden board,'
p3388
aS'sturdy wooden or metal pole'
p3389
aS'toy bubbles (from a vendor)'
p3390
aS'insulated copper wire'
p3391
aS'LEDs'
p3392
aS'Thumbtack'
p3393
aS'moldable casein'
p3394
aS'9 volt battery'
p3395
aS'kabob stick'
p3396
aS'popsicle stick'
p3397
aS'uninsulated copper wire'
p3398
aaS'http://guide-images.makeprojects.org/igi/ZooCiMVB6FwpsFke.standard'
p3399
aS'http://makeprojects.com/Project/LED-Jellies-Lamp-Stand/644/1'
p3400
asS'The Electronic Nag'
p3401
(lp3402
(lp3403
S'Arduino Uno'
p3404
aS'ChronoDot real-time clock module'
p3405
aS'Wave Shield'
p3406
aS'MakerShield'
p3407
aS'Audio speaker'
p3408
aS'LCD display'
p3409
aS'Proximity sensor'
p3410
aS'Resistor'
p3411
aS'Power supply'
p3412
aS'Shield stacking headers for Arduino'
p3413
aS'Jumper Wire'
p3414
aS'Cable'
p3415
aS'Machine screws'
p3416
aS'Nuts'
p3417
aS'Machine screws'
p3418
aS'Standoffs'
p3419
aS'Rubber feet'
p3420
aS'Nail'
p3421
aS'Project enclosure'
p3422
aS'Machie screws'
p3423
aS'Acrylic'
p3424
aaS'http://guide-images.makeprojects.org/igi/ImEl6wZHOwcTPodu.standard'
p3425
aS'http://makeprojects.com/Project/The-Electronic-Nag/2100/1'
p3426
asS'Simple Motor'
p3427
(lp3428
(lp3429
S'Toothpick'
p3430
aS'Motor wrap wire'
p3431
aS'Battery'
p3432
aS'Masking tape'
p3433
aS'Wood'
p3434
aS'Magnet'
p3435
aaS'http://guide-images.makeprojects.org/igi/Z6OkckTH2lEwSBQL.standard'
p3436
aS'http://makeprojects.com/Project/Simple-Motor/67/1'
p3437
asS'The Truth Meter'
p3438
(lp3439
(lp3440
S'Truth Meter Kit'
p3441
aS'Velcro tape, 3&frasl;4&quot;, 7&quot; long'
p3442
aS'Copper or brass foil, 36 gauge (0.005&quot;) or thinner, 1&quot; wide, 6&quot; long'
p3443
aS'Insulated wire, 18 gauge, 10&quot; lengths'
p3444
aS'Headers, 2-pin'
p3445
aS'Solderless breadboard'
p3446
aS'Jumper wire kit'
p3447
aS'Batteries, AA'
p3448
aS'Battery holder, 4xAA'
p3449
aS'Dual op-amp IC, MCP6002'
p3450
aS'Resistors, 1&frasl;4W: 220&Omega; , 10k&Omega;, 100k&Omega;, 1M&Omega;'
p3451
aS'Resistors, 1&frasl;4W: 3.3M&Omega;'
p3452
aS'Capacitors: 10nF'
p3453
aS'Capacitors: 0.1&mu;F'
p3454
aS'Diodes, 1N4001'
p3455
aS'LED, Red'
p3456
aaS'http://guide-images.makeprojects.org/igi/DtSMklJiYIpNdahZ.standard'
p3457
aS'http://makeprojects.com/Project/The-Truth-Meter/703/1'
p3458
asS'Robot-Headed Valentine Box'
p3459
(lp3460
(lp3461
S'1-foot by 2-foot by 1/2-foot cardboard box'
p3462
aS'LEDs'
p3463
aS'Wire 30-gauge and 22-gauge'
p3464
aS'Assorted colored markers'
p3465
aS'3-volt battery and holder'
p3466
aS'SPST switch, non-momentary'
p3467
aS'Aluminum foil'
p3468
aS'Tape'
p3469
aS'Heart-shaped stickers (optional)'
p3470
aS'Plastic bottle'
p3471
aaS'http://guide-images.makeprojects.org/igi/bhDG1BLqmnFL1ykA.standard'
p3472
aS'http://makeprojects.com/Project/Robot-Headed-Valentine-Box/1899/1'
p3473
asS'The Illuminometer Pod'
p3474
(lp3475
(lp3476
S'Solar cell'
p3477
aS'5-minute epoxy'
p3478
aS'Meter'
p3479
aS'Potentiometer'
p3480
aS'iPod case'
p3481
aS'Wire'
p3482
aaS'http://guide-images.makeprojects.org/igi/I2tu4b5x1Xn3wVZH.standard'
p3483
aS'http://makeprojects.com/Project/The-Illuminometer-Pod/321/1'
p3484
asS'Simple Modkit Drawbot'
p3485
(lp3486
(lp3487
aS'http://guide-images.makeprojects.org/igi/y4nE3B1yhfxKyyqe.standard'
p3488
aS'http://makeprojects.com/Project/Simple-Modkit-Drawbot/2045/1'
p3489
asS'VCR Cat Feeder'
p3490
(lp3491
(lp3492
S'Glue'
p3493
aS'Hook-up wire'
p3494
aS'Screws'
p3495
aS'VCR'
p3496
aS'Meat grinder'
p3497
aS'Container'
p3498
aS'Gearbox'
p3499
aS'Videocassette'
p3500
aS'Metal card frame'
p3501
aS'Electrical Tape'
p3502
aS'Multiway electrical connector'
p3503
aaS'http://guide-images.makeprojects.org/igi/GXiRpJvH2U6edPEs.standard'
p3504
aS'http://makeprojects.com/Project/VCR-Cat-Feeder/69/1'
p3505
asS'Headgear MIDI Control'
p3506
(lp3507
(lp3508
S'Microphones'
p3509
aS'Microphone housing'
p3510
aS'Microphone case cartridges'
p3511
aS'Mic-stand attachment'
p3512
aS'Microcontroller'
p3513
aS'Arduino ProtoShield'
p3514
aS'Mic outputs'
p3515
aS'USB hub'
p3516
aS'Preamp unit'
p3517
aS'Computer'
p3518
aaS'http://guide-images.makeprojects.org/igi/SVcXvcvKLGIpj6bQ.standard'
p3519
aS'http://makeprojects.com/Project/Headgear-MIDI-Control/1206/1'
p3520
asS'Technique:Reverse-Jailbreak Your iPhone or iPod Touch Without a Restore'
p3521
(lp3522
(lp3523
aS'http://guide-images.makeprojects.org/igi/mxNjYxtSBcOEfdMS.standard'
p3524
aS'http://makeprojects.com/Project/Reverse-Jailbreak-Your-iPhone-or-iPod-Touch-Without-a-Restore/484/1'
p3525
asS'Instant Nature: Quick &amp; Peaceful'
p3526
(lp3527
(lp3528
S'Wave Shield'
p3529
aS'Arduino Uno'
p3530
aS'Hotkeys for Arduino'
p3531
aaS'http://guide-images.makeprojects.org/igi/gDGxPiDRGQFbgctM.standard'
p3532
aS'http://makeprojects.com/Project/Instant-Nature-Quick-Peaceful/1941/1'
p3533
asS'Styrofoam Plate Speaker'
p3534
(lp3535
(lp3536
S'Foam plate'
p3537
aS'Bond paper'
p3538
aS'Business cards'
p3539
aS'Copper wire'
p3540
aS'Tape'
p3541
aS'Glue'
p3542
aS'Neodymium magnets'
p3543
aS'Wood'
p3544
aS'Audio plug'
p3545
aaS'http://guide-images.makeprojects.org/igi/2PxQqGIDCMfqYScH.standard'
p3546
aS'http://makeprojects.com/Project/Styrofoam-Plate-Speaker/37/1'
p3547
asS'Technique:LED Testing'
p3548
(lp3549
(lp3550
aS'http://guide-images.makeprojects.org/igi/JDoLJLeUZ1OHqiHy.standard'
p3551
aS'http://makeprojects.com/Project/LED-Testing/725/1'
p3552
asS'Arduino 101: Potentiometers and Servos'
p3553
(lp3554
(lp3555
S'Servo'
p3556
aS'ProtoShield'
p3557
aS'Breadboard'
p3558
aS'Control Knob'
p3559
aS'Battery holder'
p3560
aS'Jumper Wire'
p3561
aS'Linear Taper Potentiometer'
p3562
aaS'http://guide-images.makeprojects.org/igi/FyII35Hh1KFXOdhi.standard'
p3563
aS'http://makeprojects.com/Project/Arduino-101-Potentiometers-and-Servos/983/1'
p3564
asS'Arduino Temp / Humidity Monitor with Web and SNMP'
p3565
(lp3566
(lp3567
S'Arduino Uno'
p3568
aS'Arduino Netshield'
p3569
aS'MakerShield'
p3570
aS'Header pins, male, snap-off'
p3571
aS'Header pins, female, snap-off'
p3572
aS'adafruit max6675 temp sensor'
p3573
aS'humidity sensor'
p3574
aS'Jumper Wire'
p3575
aaS'http://guide-images.makeprojects.org/igi/uMm2gnbaMiaeT1QR.standard'
p3576
aS'http://makeprojects.com/Project/Arduino-Temp-Humidity-Monitor-with-Web-and-SNMP/1367/1'
p3577
asS'Air Guitar Hero'
p3578
(lp3579
(lp3580
S'Nintendo Wii video game console'
p3581
aS'Guitar Hero III: Legends of Rock video game, Wireless Bundle with Gibson Les Paul controller'
p3582
aS'DB9 D-sub connector, female, solder type'
p3583
aS'RS-232 serial extension cable, dB9 male-to-female'
p3584
aS'Laptop computer running Windows XP (32-bit version)'
p3585
aS'EMG electrodes, silver-silver chloride, bipolar (1 box)'
p3586
aS'Button snap-connectors'
p3587
aS'Myoelectrode amplifiers'
p3588
aS'Data acquisition board'
p3589
aS'USB video capture device'
p3590
aaS'http://guide-images.makeprojects.org/igi/LqghorWn5axtyExH.standard'
p3591
aS'http://makeprojects.com/Project/Air-Guitar-Hero/1817/1'
p3592
asS'Gun-Operated Alarm Clock'
p3593
(lp3594
(lp3595
S'Electric tape'
p3596
aS'Poster putty'
p3597
aS'Spray plastic polish'
p3598
aS'Kitchen soap'
p3599
aS'Digital clock radio'
p3600
aS'Multi-way cable with at least four conductors'
p3601
aS'Small tilt switches'
p3602
aS'Light gun'
p3603
aS'Small perfboard'
p3604
aaS'http://guide-images.makeprojects.org/igi/ivWaIukfVa1UZ6DM.standard'
p3605
aS'http://makeprojects.com/Project/Gun-Operated-Alarm-Clock/978/1'
p3606
asS'Magic Mirror Costume'
p3607
(lp3608
(lp3609
S'15&quot; LCD Monitor (Preferably 12V in)'
p3610
aS'Cheap Picture Frame'
p3611
aS'1x2 Furring Strip'
p3612
aS'Can of expanding foam'
p3613
aS'Plexi Glass'
p3614
aS'Mirror Finish window tint'
p3615
aS'AA Battery Holders'
p3616
aS'Drywall screws'
p3617
aS'Silicon Caulking'
p3618
aS'laptop'
p3619
aS'USB Numberpad'
p3620
aS'1.2V NiMH Rechargeable batteries (2000 mAh)'
p3621
aS'Wire'
p3622
aS'heatshrink tubing'
p3623
aS'Steel wire'
p3624
aS'Double Stick Tape'
p3625
aaS'http://guide-images.makeprojects.org/igi/SRyrC6PeDSLQ3eWC.standard'
p3626
aS'http://makeprojects.com/Project/Magic-Mirror-Costume/1433/1'
p3627
asS'Kitty Twitty Cat Toy'
p3628
(lp3629
(lp3630
S'Arduino Duemilanove'
p3631
aS'Arduino Ethernet Shield'
p3632
aS'Power supply'
p3633
aS'Enclosure'
p3634
aS'LEDs'
p3635
aS'Resistor'
p3636
aS'resistors'
p3637
aS'LED holders'
p3638
aS'Switch'
p3639
aS'Ethernet cable'
p3640
aS'Wire'
p3641
aS'Solder'
p3642
aS'Heat-shrink tubing'
p3643
aS'Craft glue'
p3644
aS'Paint'
p3645
aS'Paper'
p3646
aS'Glue stick'
p3647
aS'Sealer'
p3648
aS'Guitar E string'
p3649
aS'Wall anchor'
p3650
aS'Computer'
p3651
aS'USB A-B cable'
p3652
aaS'http://guide-images.makeprojects.org/igi/I3MhaxfY1hNRPJGo.standard'
p3653
aS'http://makeprojects.com/Project/Kitty-Twitty-Cat-Toy/1439/1'
p3654
asS'Electronic Timer for a Dishwasher'
p3655
(lp3656
(lp3657
aS'http://guide-images.makeprojects.org/igi/TgTW5o2X5wNdSDYR.standard'
p3658
aS'http://makeprojects.com/Project/Electronic-Timer-for-a-Dishwasher/1172/1'
p3659
asS'555 Timer Ball Whacker'
p3660
(lp3661
(lp3662
S'Servo Motor'
p3663
aS'Breadboard'
p3664
aS'Resistor'
p3665
aS'Photoresistor'
p3666
aS'Diodes'
p3667
aS'Desk lamp'
p3668
aS'Plywood'
p3669
aS'Polystyrene ball'
p3670
aS'Carriage bolt'
p3671
aS'Batteries'
p3672
aS'Battery Holder 3XAAA'
p3673
aS'555 Timer IC'
p3674
aS'Electrolytic Capacitor 1.0uF'
p3675
aS'Electrolytic Capacitor 1000uF'
p3676
aS"Jeweler's wire"
p3677
aaS'http://guide-images.makeprojects.org/igi/1FH6EIMFyik3ZgTM.standard'
p3678
aS'http://makeprojects.com/Project/555-Timer-Ball-Whacker/1061/1'
p3679
asS'Cigar Box Guitar'
p3680
(lp3681
(lp3682
S'Pen pencil or markers'
p3683
aS'Cigar box'
p3684
aS'Mason twine 15 and 18'
p3685
aS'&frac14;&quot;x3&quot; eyebolts and nuts'
p3686
aS'12x5 8&quot; wood screws'
p3687
aS"3' length of 1x2 red oak"
p3688
aS'&frac14;&quot; square hardwood stock at least 1&frac12;&quot; long'
p3689
aS'&frac12;&quot; square hardwood stock at least 1&frac12;&quot; long'
p3690
aS'Super glue'
p3691
aS'90-second epoxy'
p3692
aS'&frac14;&quot; washers'
p3693
aS'&frac14;&quot; wing nuts'
p3694
aS'2&quot; common nails (at least 3)'
p3695
aS'3&frac12;&quot; x 1&quot; (size 33) rubber bands'
p3696
aS'OPTIONAL'
p3697
aaS'http://guide-images.makeprojects.org/igi/Q2C1VJKqqnXKUPKm.standard'
p3698
aS'http://makeprojects.com/Project/Cigar-Box-Guitar/448/1'
p3699
asS'Supercap Racer Kit'
p3700
(lp3701
(lp3702
S'Supercap Racer Kit'
p3703
aaS'http://guide-images.makeprojects.org/igi/hiUqIGCUmrjHSSb6.standard'
p3704
aS'http://makeprojects.com/Project/Supercap-Racer-Kit/1659/1'
p3705
asS'The Luna Mod Looper'
p3706
(lp3707
(lp3708
S'Stripboard'
p3709
aS'Microprocessor'
p3710
aS'Potentiometer, linear, vertical PCB mount'
p3711
aS'LED, 5mm, blue'
p3712
aS'Voltage regulator, 5V, 7805'
p3713
aS'Resistor, 500-piece assorment, 1/4 Watt'
p3714
aS'Switch, micro-mini toggle'
p3715
aS'IC socket, 8 pin'
p3716
aS'Audio jack, Stereo inline, 1/8&quot;'
p3717
aS'Switch, momentary pushbutton'
p3718
aS'Audio jack, mono, &frac14;&quot; panel-mount'
p3719
aS'Battery, 9V'
p3720
aS'Battery clip 9V'
p3721
aS'Picaxe programming cable'
p3722
aS'LED holders'
p3723
aS'Knob, to fit a &frac14;&quot; (6.35mm) shaft'
p3724
aS'Wood boards'
p3725
aS'Box hinges'
p3726
aS'Capacitor ceramic 0.01&micro;F'
p3727
aS'Capacitor, ceramic, 0.1&micro;F'
p3728
aS'Hookup wire, 22 AWG stranded'
p3729
aS'Hookup wire, 22 AWG'
p3730
aaS'http://guide-images.makeprojects.org/igi/EFqhQZP5Y1OwGRTw.standard'
p3731
aS'http://makeprojects.com/Project/The-Luna-Mod-Looper/974/1'
p3732
asS'Networked On Air Light'
p3733
(lp3734
(lp3735
S'ConnectPort X2'
p3736
aS'XBee Series 2 Wireless Module'
p3737
aS'Arduino microcontroller'
p3738
aS'XBee Shield'
p3739
aS'Wall-Mount Oval Bulkhead Light'
p3740
aS'Relay Circuit Board'
p3741
aS'Cradled Wood Panel'
p3742
aS'Peel &amp; Stick Vinyl Letters'
p3743
aS'Lamp cord'
p3744
aS'Cube tap extension cord'
p3745
aS'Velcro'
p3746
aS'Lightbulb'
p3747
aaS'http://guide-images.makeprojects.org/igi/XDoHSEEhYYOVnAMX.standard'
p3748
aS'http://makeprojects.com/Project/Networked-On-Air-Light/614/1'
p3749
asS'Parabolic Microphone'
p3750
(lp3751
(lp3752
S'Zip ties'
p3753
aS'Gaffer&rsquo;s tape'
p3754
aS'Umbrella hat'
p3755
aS'Paint roller handle'
p3756
aS'Microphone'
p3757
aaS'http://guide-images.makeprojects.org/igi/ubMNcLwdoPdSG6fp.standard'
p3758
aS'http://makeprojects.com/Project/Parabolic-Microphone/16/1'
p3759
asS'Build a projBox Controller'
p3760
(lp3761
(lp3762
S'projBox'
p3763
aS'Arduino microcontroller'
p3764
aS'tiny screws'
p3765
aS'Prototyping PC board'
p3766
aS'10k potentiometers'
p3767
aS'SPST toggle switch'
p3768
aS'LED'
p3769
aS'USB cable'
p3770
aS'various wires'
p3771
aaS'http://guide-images.makeprojects.org/igi/mQdhMQi232jaZgKg.standard'
p3772
aS'http://makeprojects.com/Project/Build-a-projBox-Controller/506/1'
p3773
asS'Jailbreak an iPhone, iPod Touch, or iPad'
p3774
(lp3775
(lp3776
S'IPod USB connector'
p3777
aaS'http://guide-images.makeprojects.org/igi/2ao6Uf13ArMtGtTn.standard'
p3778
aS'http://makeprojects.com/Project/Jailbreak-an-iPhone-iPod-Touch-or-iPad/490/1'
p3779
asS'Guitar Strap Gamepad'
p3780
(lp3781
(lp3782
S'Visor or belt clip'
p3783
aS'Xbox 360 Controller'
p3784
aS'Bolt'
p3785
aS'Hex nut'
p3786
aS'Split washer'
p3787
aS'Flat washer'
p3788
aS'Tape'
p3789
aS'Battery'
p3790
aaS'http://guide-images.makeprojects.org/igi/5SbitoPDhQXjgdGy.standard'
p3791
aS'http://makeprojects.com/Project/Guitar-Strap-Gamepad/2014/1'
p3792
asS'Tron Bag with EL Wire'
p3793
(lp3794
(lp3795
S'EL wire'
p3796
aS'EL Inverter with connectors'
p3797
aS'Copper tape'
p3798
aS'Heat-shrink tubing'
p3799
aS'Insulated stranded hookup wire 22-gauge'
p3800
aS'invisible thread'
p3801
aaS'http://guide-images.makeprojects.org/igi/DbAkBiwxhQ6G6wUD.standard'
p3802
aS'http://makeprojects.com/Project/Tron-Bag-with-EL-Wire/477/1'
p3803
asS'Piroulette: A Machine That Predicts Your Last Words'
p3804
(lp3805
(lp3806
S'Bare Bones Board'
p3807
aS'LCD117 Breakout Board with LCD'
p3808
aS'Six-pin extension cables'
p3809
aaS'http://guide-images.makeprojects.org/igi/PHGWHtJBL5nIQ4aE.standard'
p3810
aS'http://makeprojects.com/Project/Piroulette-A-Machine-That-Predicts-Your-Last-Words/1223/1'
p3811
asS'Technique:Beginning Programming: Learning Python'
p3812
(lp3813
(lp3814
aS'http://guide-images.makeprojects.org/igi/tnvGfkM5i1Lsq2RE.standard'
p3815
aS'http://makeprojects.com/Project/Beginning-Programming-Learning-Python/942/1'
p3816
asS'Animatronic Rocking Chair Prop'
p3817
(lp3818
(lp3819
S'Old Rocking Chair'
p3820
aS'2&quot; PVC pipe, 10&quot; length'
p3821
aS'Screws'
p3822
aS'windshield wiper motor'
p3823
aS'DC power source, switched, 8V - 12V, 2 - 3 amps'
p3824
aS'Miscellaneous pieces of wire.'
p3825
aaS'http://guide-images.makeprojects.org/igi/O3AcEL6eDbrCTWRL.standard'
p3826
aS'http://makeprojects.com/Project/Animatronic-Rocking-Chair-Prop/1602/1'
p3827
asS'LED Shift Register'
p3828
(lp3829
(lp3830
aS'http://guide-images.makeprojects.org/igi/rAYbOTq3C25LYRkp.standard'
p3831
aS'http://makeprojects.com/Project/LED-Shift-Register/1129/1'
p3832
asS'Robot Resurrection : A New Life for an Old Friend, Robie Sr., Part One'
p3833
(lp3834
(lp3835
S'10mm White LED Radio Shack Part #276-0005'
p3836
aS'5mm Blue LED Radio Shack Part #210-2850'
p3837
aS'220 ohm resistors Radio Shack Part #206-2340'
p3838
aS'Robie Sr.'
p3839
aaS'http://guide-images.makeprojects.org/igi/JqWQyfY5NCjOoyRc.standard'
p3840
aS'http://makeprojects.com/Project/Robot-Resurrection-A-New-Life-for-an-Old-Friend-Robie-Sr-Part-One/944/1'
p3841
asS'Arduino 101: Blink an LED'
p3842
(lp3843
(lp3844
S'LED, Red'
p3845
aaS'http://guide-images.makeprojects.org/igi/H4JrX6gX1UrOHMqm.standard'
p3846
aS'http://makeprojects.com/Project/Arduino-101-Blink-an-LED/1209/1'
p3847
asS'Luminch One'
p3848
(lp3849
(lp3850
S'Infrared Proximity Sensor Long Range - Sharp GP2Y0A02YK0F'
p3851
aS'Infrared Sensor Jumper Wire - 3-Pin JST'
p3852
aS'Arduino Uno'
p3853
aS'Breadboard Mini Self-Adhesive'
p3854
aS'Electrolytic Decoupling Capacitor - 100uF/25V'
p3855
aS'Jumper Wires Premium 6&quot; M/M Pack of 10'
p3856
aS'Luxeon Rebel High Power LED Breakout - Warm White'
p3857
aS'Break Away Male Headers - Right Angle'
p3858
aS'USB Cable A to B - 6 Foot'
p3859
aS'Wall Charger - 5V USB'
p3860
aS'Resistor 18 ohms 1W'
p3861
aS'Resistor 220 ohms 1/4W'
p3862
aS'NPN Transistor BC337'
p3863
aS'Short jumper wires (like the conductors from solid core UTP cable)'
p3864
aS'Heat shrink 3mm diameter (1/8 inch)'
p3865
aS'Balsa Wood Sheet 36&quot; x 3/16&quot; x 3&quot;'
p3866
aS'Tracing Paper Sheet A4 110 to 200 gsm'
p3867
aaS'http://guide-images.makeprojects.org/igi/t2bROUDZUAXdgPsN.standard'
p3868
aS'http://makeprojects.com/Project/Luminch-One/1773/1'
p3869
asS'Mint Tin USB Travel Hub'
p3870
(lp3871
(lp3872
S'USB 2.0 Hub'
p3873
aS'mint tin'
p3874
aaS'http://guide-images.makeprojects.org/igi/OijbOI6VMXPkmqxT.standard'
p3875
aS'http://makeprojects.com/Project/Mint-Tin-USB-Travel-Hub/1250/1'
p3876
asS'Cheerlights Desktop Christmas Tree'
p3877
(lp3878
(lp3879
aS'http://guide-images.makeprojects.org/igi/oQefSXefiEOpgCQD.standard'
p3880
aS'http://makeprojects.com/Project/Cheerlights-Desktop-Christmas-Tree/1711/1'
p3881
asS'Thumb Piano'
p3882
(lp3883
(lp3884
S'Grounding bar'
p3885
aS'Piano body'
p3886
aS'Shim'
p3887
aS'Fasteners'
p3888
aS'Tines'
p3889
aS'Grounding bar'
p3890
aS'Salad bowl'
p3891
aS'Square dowel'
p3892
aS'Spring steel'
p3893
aS'Wood screws'
p3894
aaS'http://guide-images.makeprojects.org/igi/ySYMpH4ojnfjND6V.standard'
p3895
aS'http://makeprojects.com/Project/Thumb-Piano/2126/1'
p3896
asS'Light-Up EL Wire Costume'
p3897
(lp3898
(lp3899
S'EL wire'
p3900
aS'EL wire'
p3901
aS'Jumpsuit'
p3902
aS'Carpenter kneepads'
p3903
aS'Helmet'
p3904
aS'Stretch fabric'
p3905
aS'Headphones'
p3906
aS'Gloves'
p3907
aS'Matte black tape'
p3908
aS'Battery pack'
p3909
aaS'http://guide-images.makeprojects.org/igi/OpWEdhNObKYLUPDf.standard'
p3910
aS'http://makeprojects.com/Project/Light-Up-EL-Wire-Costume/1392/1'
p3911
asS'The Autophenakistoscope'
p3912
(lp3913
(lp3914
S'Unwanted CD or DVD'
p3915
aS'Power supply'
p3916
aS'Cardboard'
p3917
aS'Hardboard panel'
p3918
aS'Wood glue or white glue'
p3919
aS'Maksing tape'
p3920
aS'Adhesive'
p3921
aS'Zip ties'
p3922
aS'Terminal strip'
p3923
aS'Additional knob'
p3924
aS'Screws'
p3925
aS'Gearmotor'
p3926
aS'Heat-shrink tubing'
p3927
aS'Knobs'
p3928
aS'resistors'
p3929
aS'Switch'
p3930
aS'Potentiometer'
p3931
aS'Solder'
p3932
aS'Hookup wire'
p3933
aS'Infrared emitter and detector pair'
p3934
aS'LED holder/diffuser lens'
p3935
aS'LED'
p3936
aS'Freeduino motor control shield kit for Arduino'
p3937
aS'Headers'
p3938
aS'Arduino Duemilanove'
p3939
aS'LED holders'
p3940
aS'Paint'
p3941
aS'Foam tape'
p3942
aaS'http://guide-images.makeprojects.org/igi/1rvt3cicQS3gWKNw.standard'
p3943
aS'http://makeprojects.com/Project/The-Autophenakistoscope/844/1'
p3944
asS'LED Hoop Earring, Mk I'
p3945
(lp3946
(lp3947
S'LED any size or type e.g. Mouser 604-WP7113QBC D'
p3948
aS'Hoop earring'
p3949
aS'Electrical Tape'
p3950
aS'Monofilament (Fishing) Line'
p3951
aS'CR2032 Lithium Battery'
p3952
aaS'http://guide-images.makeprojects.org/igi/1RDwOcfWFDIKZZ4j.standard'
p3953
aS'http://makeprojects.com/Project/LED-Hoop-Earring-Mk-I/410/1'
p3954
as.