(dp0
S'Helmet'
p1
(lp2
S'Light-Up EL Wire Costume'
p3
asS'AVR programmer'
p4
(lp5
S'LED Tank Top'
p6
asS'Steel wire'
p7
(lp8
S'Annie&#039;s Blinking El Wire Eye'
p9
asS'Resistor'
p10
(lp11
S'Musical Drawdio Puppet'
p12
aS'LED Hula Hoop'
p13
asS'Velcro tape'
p14
(lp15
S'Arduino Blinking Bike Patch'
p16
asS'Drawdio'
p17
(lp18
g12
asS'Matte black tape'
p19
(lp20
g3
asS'Sew-on snaps'
p21
(lp22
S'TV-B-Gone Hoodie'
p23
aS'Soft-Circuit LED Bracelet'
p24
ag12
asS'On/off switch'
p25
(lp26
g6
aS'Electronic Embroidery'
p27
asS'Thread'
p28
(lp29
g23
ag24
aS'Rock Star Headphones'
p30
ag12
ag6
ag27
ag16
asS'Headphones'
p31
(lp32
g30
ag3
asS'Bag'
p33
(lp34
g16
asS'Stretch fabric'
p35
(lp36
g3
asS'Embroidery needle'
p37
(lp38
S'LED Night-Light Cube'
p39
aS'Emoting Puppets'
p40
ag27
asS'Measuring tape'
p41
(lp42
g13
asS'Polyester fiberfill'
p43
(lp44
g12
asS'Copper tape'
p45
(lp46
g9
asS'Fabric'
p47
(lp48
g23
aS'Space Invaders Tote'
p49
ag49
ag49
ag24
aS'LED Shoe Clips'
p50
ag40
ag27
ag16
asS'Pattern'
p51
(lp52
g40
ag27
asS'HDPE plastic tubing'
p53
(lp54
g13
asS'Metal strap carriers'
p55
(lp56
g49
asS'Coin cell battery'
p57
(lp58
g24
ag39
ag27
asS'Snap connector leads'
p59
(lp60
g9
asS'Tape'
p61
(lp62
g30
ag39
asS'Small quantity of conductive thread'
p63
(lp64
g23
asS'Colored pencils'
p65
(lp66
g9
asS'Lightwire'
p67
(lp68
g9
asS'Bluetooth Modem - BlueSMiRF Silver'
p69
(lp70
S'Android-Controlled LED Light Shirt'
p71
asS'Battery holder'
p72
(lp73
g6
ag40
ag27
ag9
asS'Hooded sweatshirt'
p74
(lp75
g23
asS'Metallic thread'
p76
(lp77
g49
asS'Ironing board material'
p78
(lp79
g49
asS'Fleece'
p80
(lp81
g30
ag12
asS'Heat-shrink tubing'
p82
(lp83
g23
ag9
asS'Foamcore board'
p84
(lp85
g9
asS'Lithium 3V battery'
p86
(lp87
g40
asS'Gloves'
p88
(lp89
g3
asS'Network cable'
p90
(lp91
g9
asS'Neoprene'
p92
(lp93
g30
asS'LilyPad Pro Kit'
p94
(lp95
g16
asS'Battery'
p96
(lp97
g16
ag9
asS'Conductive fabric'
p98
(lp99
g12
asS'Super TV-B-Gone Kit'
p100
(lp101
g23
asS'Ruler'
p102
(lp103
g49
asS'Carbon paper'
p104
(lp105
g27
asS'Bristol board'
p106
(lp107
g39
asS'Wire'
p108
(lp109
g39
ag13
ag13
asS'Metal snaps'
p110
(lp111
g30
asS'LEDs'
p112
(lp113
g40
asS'Liquid stitch'
p114
(lp115
g6
asS'Android phone'
p116
(lp117
g71
asS'Felt'
p118
(lp119
g24
ag50
ag39
ag40
asS'Bliptronics LED pixel'
p120
(lp121
g71
asS'DC power supply'
p122
(lp123
g6
asS'Stranded Wire'
p124
(lp125
g49
asS'AVRmega15 microcontroller'
p126
(lp127
g6
asS'Conductive velcro'
p128
(lp129
g24
ag16
asS'Serial adapter'
p130
(lp131
g6
asS'Fabric fusing material'
p132
(lp133
g49
asS'Switch'
p134
(lp135
g13
asS'Epoxy'
p136
(lp137
g13
asS'Muslin'
p138
(lp139
g40
asS'LED'
p140
(lp141
g49
ag24
ag30
ag6
ag39
ag13
ag27
asS'LiPower board'
p142
(lp143
g16
asS'Garment'
p144
(lp145
g6
asS'Battery pack'
p146
(lp147
g3
asS'Tactile switch'
p148
(lp149
g40
asS'Conductive thread'
p150
(lp151
g49
ag24
ag30
ag12
ag40
ag27
ag16
asS'Metallic snaps'
p152
(lp153
g49
asS'Nylon webbing'
p154
(lp155
g49
asS'Batting'
p156
(lp157
g40
asS'Jumpsuit'
p158
(lp159
g3
asS'Conductive hook and loop'
p160
(lp161
g30
asS'LM1084IT 5Amp 5V LDO Linear Regulator'
p162
(lp163
g71
asS'Duct tape'
p164
(lp165
g9
asS'Barbed pipe fitting'
p166
(lp167
g13
asS'Lead-free solder'
p168
(lp169
g6
asS'LED Sewing Kit'
p170
(lp171
g50
asS'Standard driver'
p172
(lp173
g9
asS'Embroidery thread'
p174
(lp175
g30
ag40
asS'Battery snap connector'
p176
(lp177
g9
asS'Paper'
p178
(lp179
g9
asS'Cellphone battery'
p180
(lp181
g30
asS'Electrical Tape'
p182
(lp183
g49
ag13
asS'Coin cell battery holder'
p184
(lp185
g24
asS'Arduino or similar 8-bit microcontroller'
p186
(lp187
g71
asS'Insulated wire'
p188
(lp189
g23
asS'Purse snap'
p190
(lp191
g24
asS'Zip tie'
p192
(lp193
g9
asS'Nonmetallic thread'
p194
(lp195
g49
asS'Cellphone flasher'
p196
(lp197
g49
asS'Crimping beads'
p198
(lp199
g6
asS'EL wire'
p200
(lp201
g3
asS'Carpenter kneepads'
p202
(lp203
g3
asS'Interfacing'
p204
(lp205
g49
asS'Sternlab LED Sewing Kit'
p206
(lp207
g27
asS'Sequencer'
p208
(lp209
g9
asS'Lithium CMOS battery'
p210
(lp211
g13
as.